
FactoryFirmware CubeIDE.elf:     file format elf32-littlearm

Sections:
Idx Name          Size      VMA       LMA       File off  Algn
  0 .isr_vector   00000130  08000000  08000000  00010000  2**0
                  CONTENTS, ALLOC, LOAD, READONLY, DATA
  1 .text         000033d4  08000130  08000130  00010130  2**3
                  CONTENTS, ALLOC, LOAD, READONLY, CODE
  2 .rodata       00000aa8  08003504  08003504  00013504  2**2
                  CONTENTS, ALLOC, LOAD, READONLY, DATA
  3 .ARM.extab    00000000  08003fac  08003fac  0002002c  2**0
                  CONTENTS
  4 .ARM          00000000  08003fac  08003fac  0002002c  2**0
                  CONTENTS
  5 .preinit_array 00000000  08003fac  08003fac  0002002c  2**0
                  CONTENTS, ALLOC, LOAD, DATA
  6 .init_array   00000004  08003fac  08003fac  00013fac  2**2
                  CONTENTS, ALLOC, LOAD, DATA
  7 .fini_array   00000004  08003fb0  08003fb0  00013fb0  2**2
                  CONTENTS, ALLOC, LOAD, DATA
  8 .data         0000002c  20000000  08003fb4  00020000  2**2
                  CONTENTS, ALLOC, LOAD, DATA
  9 .bss          000004ac  2000002c  08003fe0  0002002c  2**2
                  ALLOC
 10 ._user_heap_stack 00000600  200004d8  08003fe0  000204d8  2**0
                  ALLOC
 11 .ARM.attributes 00000029  00000000  00000000  0002002c  2**0
                  CONTENTS, READONLY
 12 .debug_info   0000c0ab  00000000  00000000  00020055  2**0
                  CONTENTS, READONLY, DEBUGGING, OCTETS
 13 .debug_abbrev 00001ee4  00000000  00000000  0002c100  2**0
                  CONTENTS, READONLY, DEBUGGING, OCTETS
 14 .debug_aranges 00000398  00000000  00000000  0002dfe8  2**3
                  CONTENTS, READONLY, DEBUGGING, OCTETS
 15 .debug_ranges 000002a0  00000000  00000000  0002e380  2**3
                  CONTENTS, READONLY, DEBUGGING, OCTETS
 16 .debug_macro  0000c65d  00000000  00000000  0002e620  2**0
                  CONTENTS, READONLY, DEBUGGING, OCTETS
 17 .debug_line   0000c25c  00000000  00000000  0003ac7d  2**0
                  CONTENTS, READONLY, DEBUGGING, OCTETS
 18 .debug_str    0003770f  00000000  00000000  00046ed9  2**0
                  CONTENTS, READONLY, DEBUGGING, OCTETS
 19 .comment      00000053  00000000  00000000  0007e5e8  2**0
                  CONTENTS, READONLY
 20 .debug_frame  00000cf4  00000000  00000000  0007e63c  2**2
                  CONTENTS, READONLY, DEBUGGING, OCTETS

Disassembly of section .text:

08000130 <__do_global_dtors_aux>:
 8000130:	b510      	push	{r4, lr}
 8000132:	4c05      	ldr	r4, [pc, #20]	; (8000148 <__do_global_dtors_aux+0x18>)
 8000134:	7823      	ldrb	r3, [r4, #0]
 8000136:	b933      	cbnz	r3, 8000146 <__do_global_dtors_aux+0x16>
 8000138:	4b04      	ldr	r3, [pc, #16]	; (800014c <__do_global_dtors_aux+0x1c>)
 800013a:	b113      	cbz	r3, 8000142 <__do_global_dtors_aux+0x12>
 800013c:	4804      	ldr	r0, [pc, #16]	; (8000150 <__do_global_dtors_aux+0x20>)
 800013e:	f3af 8000 	nop.w
 8000142:	2301      	movs	r3, #1
 8000144:	7023      	strb	r3, [r4, #0]
 8000146:	bd10      	pop	{r4, pc}
 8000148:	2000002c 	.word	0x2000002c
 800014c:	00000000 	.word	0x00000000
 8000150:	080034ec 	.word	0x080034ec

08000154 <frame_dummy>:
 8000154:	b508      	push	{r3, lr}
 8000156:	4b03      	ldr	r3, [pc, #12]	; (8000164 <frame_dummy+0x10>)
 8000158:	b11b      	cbz	r3, 8000162 <frame_dummy+0xe>
 800015a:	4903      	ldr	r1, [pc, #12]	; (8000168 <frame_dummy+0x14>)
 800015c:	4803      	ldr	r0, [pc, #12]	; (800016c <frame_dummy+0x18>)
 800015e:	f3af 8000 	nop.w
 8000162:	bd08      	pop	{r3, pc}
 8000164:	00000000 	.word	0x00000000
 8000168:	20000030 	.word	0x20000030
 800016c:	080034ec 	.word	0x080034ec

08000170 <__aeabi_drsub>:
 8000170:	f081 4100 	eor.w	r1, r1, #2147483648	; 0x80000000
 8000174:	e002      	b.n	800017c <__adddf3>
 8000176:	bf00      	nop

08000178 <__aeabi_dsub>:
 8000178:	f083 4300 	eor.w	r3, r3, #2147483648	; 0x80000000

0800017c <__adddf3>:
 800017c:	b530      	push	{r4, r5, lr}
 800017e:	ea4f 0441 	mov.w	r4, r1, lsl #1
 8000182:	ea4f 0543 	mov.w	r5, r3, lsl #1
 8000186:	ea94 0f05 	teq	r4, r5
 800018a:	bf08      	it	eq
 800018c:	ea90 0f02 	teqeq	r0, r2
 8000190:	bf1f      	itttt	ne
 8000192:	ea54 0c00 	orrsne.w	ip, r4, r0
 8000196:	ea55 0c02 	orrsne.w	ip, r5, r2
 800019a:	ea7f 5c64 	mvnsne.w	ip, r4, asr #21
 800019e:	ea7f 5c65 	mvnsne.w	ip, r5, asr #21
 80001a2:	f000 80e2 	beq.w	800036a <__adddf3+0x1ee>
 80001a6:	ea4f 5454 	mov.w	r4, r4, lsr #21
 80001aa:	ebd4 5555 	rsbs	r5, r4, r5, lsr #21
 80001ae:	bfb8      	it	lt
 80001b0:	426d      	neglt	r5, r5
 80001b2:	dd0c      	ble.n	80001ce <__adddf3+0x52>
 80001b4:	442c      	add	r4, r5
 80001b6:	ea80 0202 	eor.w	r2, r0, r2
 80001ba:	ea81 0303 	eor.w	r3, r1, r3
 80001be:	ea82 0000 	eor.w	r0, r2, r0
 80001c2:	ea83 0101 	eor.w	r1, r3, r1
 80001c6:	ea80 0202 	eor.w	r2, r0, r2
 80001ca:	ea81 0303 	eor.w	r3, r1, r3
 80001ce:	2d36      	cmp	r5, #54	; 0x36
 80001d0:	bf88      	it	hi
 80001d2:	bd30      	pophi	{r4, r5, pc}
 80001d4:	f011 4f00 	tst.w	r1, #2147483648	; 0x80000000
 80001d8:	ea4f 3101 	mov.w	r1, r1, lsl #12
 80001dc:	f44f 1c80 	mov.w	ip, #1048576	; 0x100000
 80001e0:	ea4c 3111 	orr.w	r1, ip, r1, lsr #12
 80001e4:	d002      	beq.n	80001ec <__adddf3+0x70>
 80001e6:	4240      	negs	r0, r0
 80001e8:	eb61 0141 	sbc.w	r1, r1, r1, lsl #1
 80001ec:	f013 4f00 	tst.w	r3, #2147483648	; 0x80000000
 80001f0:	ea4f 3303 	mov.w	r3, r3, lsl #12
 80001f4:	ea4c 3313 	orr.w	r3, ip, r3, lsr #12
 80001f8:	d002      	beq.n	8000200 <__adddf3+0x84>
 80001fa:	4252      	negs	r2, r2
 80001fc:	eb63 0343 	sbc.w	r3, r3, r3, lsl #1
 8000200:	ea94 0f05 	teq	r4, r5
 8000204:	f000 80a7 	beq.w	8000356 <__adddf3+0x1da>
 8000208:	f1a4 0401 	sub.w	r4, r4, #1
 800020c:	f1d5 0e20 	rsbs	lr, r5, #32
 8000210:	db0d      	blt.n	800022e <__adddf3+0xb2>
 8000212:	fa02 fc0e 	lsl.w	ip, r2, lr
 8000216:	fa22 f205 	lsr.w	r2, r2, r5
 800021a:	1880      	adds	r0, r0, r2
 800021c:	f141 0100 	adc.w	r1, r1, #0
 8000220:	fa03 f20e 	lsl.w	r2, r3, lr
 8000224:	1880      	adds	r0, r0, r2
 8000226:	fa43 f305 	asr.w	r3, r3, r5
 800022a:	4159      	adcs	r1, r3
 800022c:	e00e      	b.n	800024c <__adddf3+0xd0>
 800022e:	f1a5 0520 	sub.w	r5, r5, #32
 8000232:	f10e 0e20 	add.w	lr, lr, #32
 8000236:	2a01      	cmp	r2, #1
 8000238:	fa03 fc0e 	lsl.w	ip, r3, lr
 800023c:	bf28      	it	cs
 800023e:	f04c 0c02 	orrcs.w	ip, ip, #2
 8000242:	fa43 f305 	asr.w	r3, r3, r5
 8000246:	18c0      	adds	r0, r0, r3
 8000248:	eb51 71e3 	adcs.w	r1, r1, r3, asr #31
 800024c:	f001 4500 	and.w	r5, r1, #2147483648	; 0x80000000
 8000250:	d507      	bpl.n	8000262 <__adddf3+0xe6>
 8000252:	f04f 0e00 	mov.w	lr, #0
 8000256:	f1dc 0c00 	rsbs	ip, ip, #0
 800025a:	eb7e 0000 	sbcs.w	r0, lr, r0
 800025e:	eb6e 0101 	sbc.w	r1, lr, r1
 8000262:	f5b1 1f80 	cmp.w	r1, #1048576	; 0x100000
 8000266:	d31b      	bcc.n	80002a0 <__adddf3+0x124>
 8000268:	f5b1 1f00 	cmp.w	r1, #2097152	; 0x200000
 800026c:	d30c      	bcc.n	8000288 <__adddf3+0x10c>
 800026e:	0849      	lsrs	r1, r1, #1
 8000270:	ea5f 0030 	movs.w	r0, r0, rrx
 8000274:	ea4f 0c3c 	mov.w	ip, ip, rrx
 8000278:	f104 0401 	add.w	r4, r4, #1
 800027c:	ea4f 5244 	mov.w	r2, r4, lsl #21
 8000280:	f512 0f80 	cmn.w	r2, #4194304	; 0x400000
 8000284:	f080 809a 	bcs.w	80003bc <__adddf3+0x240>
 8000288:	f1bc 4f00 	cmp.w	ip, #2147483648	; 0x80000000
 800028c:	bf08      	it	eq
 800028e:	ea5f 0c50 	movseq.w	ip, r0, lsr #1
 8000292:	f150 0000 	adcs.w	r0, r0, #0
 8000296:	eb41 5104 	adc.w	r1, r1, r4, lsl #20
 800029a:	ea41 0105 	orr.w	r1, r1, r5
 800029e:	bd30      	pop	{r4, r5, pc}
 80002a0:	ea5f 0c4c 	movs.w	ip, ip, lsl #1
 80002a4:	4140      	adcs	r0, r0
 80002a6:	eb41 0101 	adc.w	r1, r1, r1
 80002aa:	3c01      	subs	r4, #1
 80002ac:	bf28      	it	cs
 80002ae:	f5b1 1f80 	cmpcs.w	r1, #1048576	; 0x100000
 80002b2:	d2e9      	bcs.n	8000288 <__adddf3+0x10c>
 80002b4:	f091 0f00 	teq	r1, #0
 80002b8:	bf04      	itt	eq
 80002ba:	4601      	moveq	r1, r0
 80002bc:	2000      	moveq	r0, #0
 80002be:	fab1 f381 	clz	r3, r1
 80002c2:	bf08      	it	eq
 80002c4:	3320      	addeq	r3, #32
 80002c6:	f1a3 030b 	sub.w	r3, r3, #11
 80002ca:	f1b3 0220 	subs.w	r2, r3, #32
 80002ce:	da0c      	bge.n	80002ea <__adddf3+0x16e>
 80002d0:	320c      	adds	r2, #12
 80002d2:	dd08      	ble.n	80002e6 <__adddf3+0x16a>
 80002d4:	f102 0c14 	add.w	ip, r2, #20
 80002d8:	f1c2 020c 	rsb	r2, r2, #12
 80002dc:	fa01 f00c 	lsl.w	r0, r1, ip
 80002e0:	fa21 f102 	lsr.w	r1, r1, r2
 80002e4:	e00c      	b.n	8000300 <__adddf3+0x184>
 80002e6:	f102 0214 	add.w	r2, r2, #20
 80002ea:	bfd8      	it	le
 80002ec:	f1c2 0c20 	rsble	ip, r2, #32
 80002f0:	fa01 f102 	lsl.w	r1, r1, r2
 80002f4:	fa20 fc0c 	lsr.w	ip, r0, ip
 80002f8:	bfdc      	itt	le
 80002fa:	ea41 010c 	orrle.w	r1, r1, ip
 80002fe:	4090      	lslle	r0, r2
 8000300:	1ae4      	subs	r4, r4, r3
 8000302:	bfa2      	ittt	ge
 8000304:	eb01 5104 	addge.w	r1, r1, r4, lsl #20
 8000308:	4329      	orrge	r1, r5
 800030a:	bd30      	popge	{r4, r5, pc}
 800030c:	ea6f 0404 	mvn.w	r4, r4
 8000310:	3c1f      	subs	r4, #31
 8000312:	da1c      	bge.n	800034e <__adddf3+0x1d2>
 8000314:	340c      	adds	r4, #12
 8000316:	dc0e      	bgt.n	8000336 <__adddf3+0x1ba>
 8000318:	f104 0414 	add.w	r4, r4, #20
 800031c:	f1c4 0220 	rsb	r2, r4, #32
 8000320:	fa20 f004 	lsr.w	r0, r0, r4
 8000324:	fa01 f302 	lsl.w	r3, r1, r2
 8000328:	ea40 0003 	orr.w	r0, r0, r3
 800032c:	fa21 f304 	lsr.w	r3, r1, r4
 8000330:	ea45 0103 	orr.w	r1, r5, r3
 8000334:	bd30      	pop	{r4, r5, pc}
 8000336:	f1c4 040c 	rsb	r4, r4, #12
 800033a:	f1c4 0220 	rsb	r2, r4, #32
 800033e:	fa20 f002 	lsr.w	r0, r0, r2
 8000342:	fa01 f304 	lsl.w	r3, r1, r4
 8000346:	ea40 0003 	orr.w	r0, r0, r3
 800034a:	4629      	mov	r1, r5
 800034c:	bd30      	pop	{r4, r5, pc}
 800034e:	fa21 f004 	lsr.w	r0, r1, r4
 8000352:	4629      	mov	r1, r5
 8000354:	bd30      	pop	{r4, r5, pc}
 8000356:	f094 0f00 	teq	r4, #0
 800035a:	f483 1380 	eor.w	r3, r3, #1048576	; 0x100000
 800035e:	bf06      	itte	eq
 8000360:	f481 1180 	eoreq.w	r1, r1, #1048576	; 0x100000
 8000364:	3401      	addeq	r4, #1
 8000366:	3d01      	subne	r5, #1
 8000368:	e74e      	b.n	8000208 <__adddf3+0x8c>
 800036a:	ea7f 5c64 	mvns.w	ip, r4, asr #21
 800036e:	bf18      	it	ne
 8000370:	ea7f 5c65 	mvnsne.w	ip, r5, asr #21
 8000374:	d029      	beq.n	80003ca <__adddf3+0x24e>
 8000376:	ea94 0f05 	teq	r4, r5
 800037a:	bf08      	it	eq
 800037c:	ea90 0f02 	teqeq	r0, r2
 8000380:	d005      	beq.n	800038e <__adddf3+0x212>
 8000382:	ea54 0c00 	orrs.w	ip, r4, r0
 8000386:	bf04      	itt	eq
 8000388:	4619      	moveq	r1, r3
 800038a:	4610      	moveq	r0, r2
 800038c:	bd30      	pop	{r4, r5, pc}
 800038e:	ea91 0f03 	teq	r1, r3
 8000392:	bf1e      	ittt	ne
 8000394:	2100      	movne	r1, #0
 8000396:	2000      	movne	r0, #0
 8000398:	bd30      	popne	{r4, r5, pc}
 800039a:	ea5f 5c54 	movs.w	ip, r4, lsr #21
 800039e:	d105      	bne.n	80003ac <__adddf3+0x230>
 80003a0:	0040      	lsls	r0, r0, #1
 80003a2:	4149      	adcs	r1, r1
 80003a4:	bf28      	it	cs
 80003a6:	f041 4100 	orrcs.w	r1, r1, #2147483648	; 0x80000000
 80003aa:	bd30      	pop	{r4, r5, pc}
 80003ac:	f514 0480 	adds.w	r4, r4, #4194304	; 0x400000
 80003b0:	bf3c      	itt	cc
 80003b2:	f501 1180 	addcc.w	r1, r1, #1048576	; 0x100000
 80003b6:	bd30      	popcc	{r4, r5, pc}
 80003b8:	f001 4500 	and.w	r5, r1, #2147483648	; 0x80000000
 80003bc:	f045 41fe 	orr.w	r1, r5, #2130706432	; 0x7f000000
 80003c0:	f441 0170 	orr.w	r1, r1, #15728640	; 0xf00000
 80003c4:	f04f 0000 	mov.w	r0, #0
 80003c8:	bd30      	pop	{r4, r5, pc}
 80003ca:	ea7f 5c64 	mvns.w	ip, r4, asr #21
 80003ce:	bf1a      	itte	ne
 80003d0:	4619      	movne	r1, r3
 80003d2:	4610      	movne	r0, r2
 80003d4:	ea7f 5c65 	mvnseq.w	ip, r5, asr #21
 80003d8:	bf1c      	itt	ne
 80003da:	460b      	movne	r3, r1
 80003dc:	4602      	movne	r2, r0
 80003de:	ea50 3401 	orrs.w	r4, r0, r1, lsl #12
 80003e2:	bf06      	itte	eq
 80003e4:	ea52 3503 	orrseq.w	r5, r2, r3, lsl #12
 80003e8:	ea91 0f03 	teqeq	r1, r3
 80003ec:	f441 2100 	orrne.w	r1, r1, #524288	; 0x80000
 80003f0:	bd30      	pop	{r4, r5, pc}
 80003f2:	bf00      	nop

080003f4 <__aeabi_ui2d>:
 80003f4:	f090 0f00 	teq	r0, #0
 80003f8:	bf04      	itt	eq
 80003fa:	2100      	moveq	r1, #0
 80003fc:	4770      	bxeq	lr
 80003fe:	b530      	push	{r4, r5, lr}
 8000400:	f44f 6480 	mov.w	r4, #1024	; 0x400
 8000404:	f104 0432 	add.w	r4, r4, #50	; 0x32
 8000408:	f04f 0500 	mov.w	r5, #0
 800040c:	f04f 0100 	mov.w	r1, #0
 8000410:	e750      	b.n	80002b4 <__adddf3+0x138>
 8000412:	bf00      	nop

08000414 <__aeabi_i2d>:
 8000414:	f090 0f00 	teq	r0, #0
 8000418:	bf04      	itt	eq
 800041a:	2100      	moveq	r1, #0
 800041c:	4770      	bxeq	lr
 800041e:	b530      	push	{r4, r5, lr}
 8000420:	f44f 6480 	mov.w	r4, #1024	; 0x400
 8000424:	f104 0432 	add.w	r4, r4, #50	; 0x32
 8000428:	f010 4500 	ands.w	r5, r0, #2147483648	; 0x80000000
 800042c:	bf48      	it	mi
 800042e:	4240      	negmi	r0, r0
 8000430:	f04f 0100 	mov.w	r1, #0
 8000434:	e73e      	b.n	80002b4 <__adddf3+0x138>
 8000436:	bf00      	nop

08000438 <__aeabi_f2d>:
 8000438:	0042      	lsls	r2, r0, #1
 800043a:	ea4f 01e2 	mov.w	r1, r2, asr #3
 800043e:	ea4f 0131 	mov.w	r1, r1, rrx
 8000442:	ea4f 7002 	mov.w	r0, r2, lsl #28
 8000446:	bf1f      	itttt	ne
 8000448:	f012 437f 	andsne.w	r3, r2, #4278190080	; 0xff000000
 800044c:	f093 4f7f 	teqne	r3, #4278190080	; 0xff000000
 8000450:	f081 5160 	eorne.w	r1, r1, #939524096	; 0x38000000
 8000454:	4770      	bxne	lr
 8000456:	f032 427f 	bics.w	r2, r2, #4278190080	; 0xff000000
 800045a:	bf08      	it	eq
 800045c:	4770      	bxeq	lr
 800045e:	f093 4f7f 	teq	r3, #4278190080	; 0xff000000
 8000462:	bf04      	itt	eq
 8000464:	f441 2100 	orreq.w	r1, r1, #524288	; 0x80000
 8000468:	4770      	bxeq	lr
 800046a:	b530      	push	{r4, r5, lr}
 800046c:	f44f 7460 	mov.w	r4, #896	; 0x380
 8000470:	f001 4500 	and.w	r5, r1, #2147483648	; 0x80000000
 8000474:	f021 4100 	bic.w	r1, r1, #2147483648	; 0x80000000
 8000478:	e71c      	b.n	80002b4 <__adddf3+0x138>
 800047a:	bf00      	nop

0800047c <__aeabi_ul2d>:
 800047c:	ea50 0201 	orrs.w	r2, r0, r1
 8000480:	bf08      	it	eq
 8000482:	4770      	bxeq	lr
 8000484:	b530      	push	{r4, r5, lr}
 8000486:	f04f 0500 	mov.w	r5, #0
 800048a:	e00a      	b.n	80004a2 <__aeabi_l2d+0x16>

0800048c <__aeabi_l2d>:
 800048c:	ea50 0201 	orrs.w	r2, r0, r1
 8000490:	bf08      	it	eq
 8000492:	4770      	bxeq	lr
 8000494:	b530      	push	{r4, r5, lr}
 8000496:	f011 4500 	ands.w	r5, r1, #2147483648	; 0x80000000
 800049a:	d502      	bpl.n	80004a2 <__aeabi_l2d+0x16>
 800049c:	4240      	negs	r0, r0
 800049e:	eb61 0141 	sbc.w	r1, r1, r1, lsl #1
 80004a2:	f44f 6480 	mov.w	r4, #1024	; 0x400
 80004a6:	f104 0432 	add.w	r4, r4, #50	; 0x32
 80004aa:	ea5f 5c91 	movs.w	ip, r1, lsr #22
 80004ae:	f43f aed8 	beq.w	8000262 <__adddf3+0xe6>
 80004b2:	f04f 0203 	mov.w	r2, #3
 80004b6:	ea5f 0cdc 	movs.w	ip, ip, lsr #3
 80004ba:	bf18      	it	ne
 80004bc:	3203      	addne	r2, #3
 80004be:	ea5f 0cdc 	movs.w	ip, ip, lsr #3
 80004c2:	bf18      	it	ne
 80004c4:	3203      	addne	r2, #3
 80004c6:	eb02 02dc 	add.w	r2, r2, ip, lsr #3
 80004ca:	f1c2 0320 	rsb	r3, r2, #32
 80004ce:	fa00 fc03 	lsl.w	ip, r0, r3
 80004d2:	fa20 f002 	lsr.w	r0, r0, r2
 80004d6:	fa01 fe03 	lsl.w	lr, r1, r3
 80004da:	ea40 000e 	orr.w	r0, r0, lr
 80004de:	fa21 f102 	lsr.w	r1, r1, r2
 80004e2:	4414      	add	r4, r2
 80004e4:	e6bd      	b.n	8000262 <__adddf3+0xe6>
 80004e6:	bf00      	nop

080004e8 <__aeabi_dmul>:
 80004e8:	b570      	push	{r4, r5, r6, lr}
 80004ea:	f04f 0cff 	mov.w	ip, #255	; 0xff
 80004ee:	f44c 6ce0 	orr.w	ip, ip, #1792	; 0x700
 80004f2:	ea1c 5411 	ands.w	r4, ip, r1, lsr #20
 80004f6:	bf1d      	ittte	ne
 80004f8:	ea1c 5513 	andsne.w	r5, ip, r3, lsr #20
 80004fc:	ea94 0f0c 	teqne	r4, ip
 8000500:	ea95 0f0c 	teqne	r5, ip
 8000504:	f000 f8de 	bleq	80006c4 <__aeabi_dmul+0x1dc>
 8000508:	442c      	add	r4, r5
 800050a:	ea81 0603 	eor.w	r6, r1, r3
 800050e:	ea21 514c 	bic.w	r1, r1, ip, lsl #21
 8000512:	ea23 534c 	bic.w	r3, r3, ip, lsl #21
 8000516:	ea50 3501 	orrs.w	r5, r0, r1, lsl #12
 800051a:	bf18      	it	ne
 800051c:	ea52 3503 	orrsne.w	r5, r2, r3, lsl #12
 8000520:	f441 1180 	orr.w	r1, r1, #1048576	; 0x100000
 8000524:	f443 1380 	orr.w	r3, r3, #1048576	; 0x100000
 8000528:	d038      	beq.n	800059c <__aeabi_dmul+0xb4>
 800052a:	fba0 ce02 	umull	ip, lr, r0, r2
 800052e:	f04f 0500 	mov.w	r5, #0
 8000532:	fbe1 e502 	umlal	lr, r5, r1, r2
 8000536:	f006 4200 	and.w	r2, r6, #2147483648	; 0x80000000
 800053a:	fbe0 e503 	umlal	lr, r5, r0, r3
 800053e:	f04f 0600 	mov.w	r6, #0
 8000542:	fbe1 5603 	umlal	r5, r6, r1, r3
 8000546:	f09c 0f00 	teq	ip, #0
 800054a:	bf18      	it	ne
 800054c:	f04e 0e01 	orrne.w	lr, lr, #1
 8000550:	f1a4 04ff 	sub.w	r4, r4, #255	; 0xff
 8000554:	f5b6 7f00 	cmp.w	r6, #512	; 0x200
 8000558:	f564 7440 	sbc.w	r4, r4, #768	; 0x300
 800055c:	d204      	bcs.n	8000568 <__aeabi_dmul+0x80>
 800055e:	ea5f 0e4e 	movs.w	lr, lr, lsl #1
 8000562:	416d      	adcs	r5, r5
 8000564:	eb46 0606 	adc.w	r6, r6, r6
 8000568:	ea42 21c6 	orr.w	r1, r2, r6, lsl #11
 800056c:	ea41 5155 	orr.w	r1, r1, r5, lsr #21
 8000570:	ea4f 20c5 	mov.w	r0, r5, lsl #11
 8000574:	ea40 505e 	orr.w	r0, r0, lr, lsr #21
 8000578:	ea4f 2ece 	mov.w	lr, lr, lsl #11
 800057c:	f1b4 0cfd 	subs.w	ip, r4, #253	; 0xfd
 8000580:	bf88      	it	hi
 8000582:	f5bc 6fe0 	cmphi.w	ip, #1792	; 0x700
 8000586:	d81e      	bhi.n	80005c6 <__aeabi_dmul+0xde>
 8000588:	f1be 4f00 	cmp.w	lr, #2147483648	; 0x80000000
 800058c:	bf08      	it	eq
 800058e:	ea5f 0e50 	movseq.w	lr, r0, lsr #1
 8000592:	f150 0000 	adcs.w	r0, r0, #0
 8000596:	eb41 5104 	adc.w	r1, r1, r4, lsl #20
 800059a:	bd70      	pop	{r4, r5, r6, pc}
 800059c:	f006 4600 	and.w	r6, r6, #2147483648	; 0x80000000
 80005a0:	ea46 0101 	orr.w	r1, r6, r1
 80005a4:	ea40 0002 	orr.w	r0, r0, r2
 80005a8:	ea81 0103 	eor.w	r1, r1, r3
 80005ac:	ebb4 045c 	subs.w	r4, r4, ip, lsr #1
 80005b0:	bfc2      	ittt	gt
 80005b2:	ebd4 050c 	rsbsgt	r5, r4, ip
 80005b6:	ea41 5104 	orrgt.w	r1, r1, r4, lsl #20
 80005ba:	bd70      	popgt	{r4, r5, r6, pc}
 80005bc:	f441 1180 	orr.w	r1, r1, #1048576	; 0x100000
 80005c0:	f04f 0e00 	mov.w	lr, #0
 80005c4:	3c01      	subs	r4, #1
 80005c6:	f300 80ab 	bgt.w	8000720 <__aeabi_dmul+0x238>
 80005ca:	f114 0f36 	cmn.w	r4, #54	; 0x36
 80005ce:	bfde      	ittt	le
 80005d0:	2000      	movle	r0, #0
 80005d2:	f001 4100 	andle.w	r1, r1, #2147483648	; 0x80000000
 80005d6:	bd70      	pople	{r4, r5, r6, pc}
 80005d8:	f1c4 0400 	rsb	r4, r4, #0
 80005dc:	3c20      	subs	r4, #32
 80005de:	da35      	bge.n	800064c <__aeabi_dmul+0x164>
 80005e0:	340c      	adds	r4, #12
 80005e2:	dc1b      	bgt.n	800061c <__aeabi_dmul+0x134>
 80005e4:	f104 0414 	add.w	r4, r4, #20
 80005e8:	f1c4 0520 	rsb	r5, r4, #32
 80005ec:	fa00 f305 	lsl.w	r3, r0, r5
 80005f0:	fa20 f004 	lsr.w	r0, r0, r4
 80005f4:	fa01 f205 	lsl.w	r2, r1, r5
 80005f8:	ea40 0002 	orr.w	r0, r0, r2
 80005fc:	f001 4200 	and.w	r2, r1, #2147483648	; 0x80000000
 8000600:	f021 4100 	bic.w	r1, r1, #2147483648	; 0x80000000
 8000604:	eb10 70d3 	adds.w	r0, r0, r3, lsr #31
 8000608:	fa21 f604 	lsr.w	r6, r1, r4
 800060c:	eb42 0106 	adc.w	r1, r2, r6
 8000610:	ea5e 0e43 	orrs.w	lr, lr, r3, lsl #1
 8000614:	bf08      	it	eq
 8000616:	ea20 70d3 	biceq.w	r0, r0, r3, lsr #31
 800061a:	bd70      	pop	{r4, r5, r6, pc}
 800061c:	f1c4 040c 	rsb	r4, r4, #12
 8000620:	f1c4 0520 	rsb	r5, r4, #32
 8000624:	fa00 f304 	lsl.w	r3, r0, r4
 8000628:	fa20 f005 	lsr.w	r0, r0, r5
 800062c:	fa01 f204 	lsl.w	r2, r1, r4
 8000630:	ea40 0002 	orr.w	r0, r0, r2
 8000634:	f001 4100 	and.w	r1, r1, #2147483648	; 0x80000000
 8000638:	eb10 70d3 	adds.w	r0, r0, r3, lsr #31
 800063c:	f141 0100 	adc.w	r1, r1, #0
 8000640:	ea5e 0e43 	orrs.w	lr, lr, r3, lsl #1
 8000644:	bf08      	it	eq
 8000646:	ea20 70d3 	biceq.w	r0, r0, r3, lsr #31
 800064a:	bd70      	pop	{r4, r5, r6, pc}
 800064c:	f1c4 0520 	rsb	r5, r4, #32
 8000650:	fa00 f205 	lsl.w	r2, r0, r5
 8000654:	ea4e 0e02 	orr.w	lr, lr, r2
 8000658:	fa20 f304 	lsr.w	r3, r0, r4
 800065c:	fa01 f205 	lsl.w	r2, r1, r5
 8000660:	ea43 0302 	orr.w	r3, r3, r2
 8000664:	fa21 f004 	lsr.w	r0, r1, r4
 8000668:	f001 4100 	and.w	r1, r1, #2147483648	; 0x80000000
 800066c:	fa21 f204 	lsr.w	r2, r1, r4
 8000670:	ea20 0002 	bic.w	r0, r0, r2
 8000674:	eb00 70d3 	add.w	r0, r0, r3, lsr #31
 8000678:	ea5e 0e43 	orrs.w	lr, lr, r3, lsl #1
 800067c:	bf08      	it	eq
 800067e:	ea20 70d3 	biceq.w	r0, r0, r3, lsr #31
 8000682:	bd70      	pop	{r4, r5, r6, pc}
 8000684:	f094 0f00 	teq	r4, #0
 8000688:	d10f      	bne.n	80006aa <__aeabi_dmul+0x1c2>
 800068a:	f001 4600 	and.w	r6, r1, #2147483648	; 0x80000000
 800068e:	0040      	lsls	r0, r0, #1
 8000690:	eb41 0101 	adc.w	r1, r1, r1
 8000694:	f411 1f80 	tst.w	r1, #1048576	; 0x100000
 8000698:	bf08      	it	eq
 800069a:	3c01      	subeq	r4, #1
 800069c:	d0f7      	beq.n	800068e <__aeabi_dmul+0x1a6>
 800069e:	ea41 0106 	orr.w	r1, r1, r6
 80006a2:	f095 0f00 	teq	r5, #0
 80006a6:	bf18      	it	ne
 80006a8:	4770      	bxne	lr
 80006aa:	f003 4600 	and.w	r6, r3, #2147483648	; 0x80000000
 80006ae:	0052      	lsls	r2, r2, #1
 80006b0:	eb43 0303 	adc.w	r3, r3, r3
 80006b4:	f413 1f80 	tst.w	r3, #1048576	; 0x100000
 80006b8:	bf08      	it	eq
 80006ba:	3d01      	subeq	r5, #1
 80006bc:	d0f7      	beq.n	80006ae <__aeabi_dmul+0x1c6>
 80006be:	ea43 0306 	orr.w	r3, r3, r6
 80006c2:	4770      	bx	lr
 80006c4:	ea94 0f0c 	teq	r4, ip
 80006c8:	ea0c 5513 	and.w	r5, ip, r3, lsr #20
 80006cc:	bf18      	it	ne
 80006ce:	ea95 0f0c 	teqne	r5, ip
 80006d2:	d00c      	beq.n	80006ee <__aeabi_dmul+0x206>
 80006d4:	ea50 0641 	orrs.w	r6, r0, r1, lsl #1
 80006d8:	bf18      	it	ne
 80006da:	ea52 0643 	orrsne.w	r6, r2, r3, lsl #1
 80006de:	d1d1      	bne.n	8000684 <__aeabi_dmul+0x19c>
 80006e0:	ea81 0103 	eor.w	r1, r1, r3
 80006e4:	f001 4100 	and.w	r1, r1, #2147483648	; 0x80000000
 80006e8:	f04f 0000 	mov.w	r0, #0
 80006ec:	bd70      	pop	{r4, r5, r6, pc}
 80006ee:	ea50 0641 	orrs.w	r6, r0, r1, lsl #1
 80006f2:	bf06      	itte	eq
 80006f4:	4610      	moveq	r0, r2
 80006f6:	4619      	moveq	r1, r3
 80006f8:	ea52 0643 	orrsne.w	r6, r2, r3, lsl #1
 80006fc:	d019      	beq.n	8000732 <__aeabi_dmul+0x24a>
 80006fe:	ea94 0f0c 	teq	r4, ip
 8000702:	d102      	bne.n	800070a <__aeabi_dmul+0x222>
 8000704:	ea50 3601 	orrs.w	r6, r0, r1, lsl #12
 8000708:	d113      	bne.n	8000732 <__aeabi_dmul+0x24a>
 800070a:	ea95 0f0c 	teq	r5, ip
 800070e:	d105      	bne.n	800071c <__aeabi_dmul+0x234>
 8000710:	ea52 3603 	orrs.w	r6, r2, r3, lsl #12
 8000714:	bf1c      	itt	ne
 8000716:	4610      	movne	r0, r2
 8000718:	4619      	movne	r1, r3
 800071a:	d10a      	bne.n	8000732 <__aeabi_dmul+0x24a>
 800071c:	ea81 0103 	eor.w	r1, r1, r3
 8000720:	f001 4100 	and.w	r1, r1, #2147483648	; 0x80000000
 8000724:	f041 41fe 	orr.w	r1, r1, #2130706432	; 0x7f000000
 8000728:	f441 0170 	orr.w	r1, r1, #15728640	; 0xf00000
 800072c:	f04f 0000 	mov.w	r0, #0
 8000730:	bd70      	pop	{r4, r5, r6, pc}
 8000732:	f041 41fe 	orr.w	r1, r1, #2130706432	; 0x7f000000
 8000736:	f441 0178 	orr.w	r1, r1, #16252928	; 0xf80000
 800073a:	bd70      	pop	{r4, r5, r6, pc}

0800073c <__aeabi_ddiv>:
 800073c:	b570      	push	{r4, r5, r6, lr}
 800073e:	f04f 0cff 	mov.w	ip, #255	; 0xff
 8000742:	f44c 6ce0 	orr.w	ip, ip, #1792	; 0x700
 8000746:	ea1c 5411 	ands.w	r4, ip, r1, lsr #20
 800074a:	bf1d      	ittte	ne
 800074c:	ea1c 5513 	andsne.w	r5, ip, r3, lsr #20
 8000750:	ea94 0f0c 	teqne	r4, ip
 8000754:	ea95 0f0c 	teqne	r5, ip
 8000758:	f000 f8a7 	bleq	80008aa <__aeabi_ddiv+0x16e>
 800075c:	eba4 0405 	sub.w	r4, r4, r5
 8000760:	ea81 0e03 	eor.w	lr, r1, r3
 8000764:	ea52 3503 	orrs.w	r5, r2, r3, lsl #12
 8000768:	ea4f 3101 	mov.w	r1, r1, lsl #12
 800076c:	f000 8088 	beq.w	8000880 <__aeabi_ddiv+0x144>
 8000770:	ea4f 3303 	mov.w	r3, r3, lsl #12
 8000774:	f04f 5580 	mov.w	r5, #268435456	; 0x10000000
 8000778:	ea45 1313 	orr.w	r3, r5, r3, lsr #4
 800077c:	ea43 6312 	orr.w	r3, r3, r2, lsr #24
 8000780:	ea4f 2202 	mov.w	r2, r2, lsl #8
 8000784:	ea45 1511 	orr.w	r5, r5, r1, lsr #4
 8000788:	ea45 6510 	orr.w	r5, r5, r0, lsr #24
 800078c:	ea4f 2600 	mov.w	r6, r0, lsl #8
 8000790:	f00e 4100 	and.w	r1, lr, #2147483648	; 0x80000000
 8000794:	429d      	cmp	r5, r3
 8000796:	bf08      	it	eq
 8000798:	4296      	cmpeq	r6, r2
 800079a:	f144 04fd 	adc.w	r4, r4, #253	; 0xfd
 800079e:	f504 7440 	add.w	r4, r4, #768	; 0x300
 80007a2:	d202      	bcs.n	80007aa <__aeabi_ddiv+0x6e>
 80007a4:	085b      	lsrs	r3, r3, #1
 80007a6:	ea4f 0232 	mov.w	r2, r2, rrx
 80007aa:	1ab6      	subs	r6, r6, r2
 80007ac:	eb65 0503 	sbc.w	r5, r5, r3
 80007b0:	085b      	lsrs	r3, r3, #1
 80007b2:	ea4f 0232 	mov.w	r2, r2, rrx
 80007b6:	f44f 1080 	mov.w	r0, #1048576	; 0x100000
 80007ba:	f44f 2c00 	mov.w	ip, #524288	; 0x80000
 80007be:	ebb6 0e02 	subs.w	lr, r6, r2
 80007c2:	eb75 0e03 	sbcs.w	lr, r5, r3
 80007c6:	bf22      	ittt	cs
 80007c8:	1ab6      	subcs	r6, r6, r2
 80007ca:	4675      	movcs	r5, lr
 80007cc:	ea40 000c 	orrcs.w	r0, r0, ip
 80007d0:	085b      	lsrs	r3, r3, #1
 80007d2:	ea4f 0232 	mov.w	r2, r2, rrx
 80007d6:	ebb6 0e02 	subs.w	lr, r6, r2
 80007da:	eb75 0e03 	sbcs.w	lr, r5, r3
 80007de:	bf22      	ittt	cs
 80007e0:	1ab6      	subcs	r6, r6, r2
 80007e2:	4675      	movcs	r5, lr
 80007e4:	ea40 005c 	orrcs.w	r0, r0, ip, lsr #1
 80007e8:	085b      	lsrs	r3, r3, #1
 80007ea:	ea4f 0232 	mov.w	r2, r2, rrx
 80007ee:	ebb6 0e02 	subs.w	lr, r6, r2
 80007f2:	eb75 0e03 	sbcs.w	lr, r5, r3
 80007f6:	bf22      	ittt	cs
 80007f8:	1ab6      	subcs	r6, r6, r2
 80007fa:	4675      	movcs	r5, lr
 80007fc:	ea40 009c 	orrcs.w	r0, r0, ip, lsr #2
 8000800:	085b      	lsrs	r3, r3, #1
 8000802:	ea4f 0232 	mov.w	r2, r2, rrx
 8000806:	ebb6 0e02 	subs.w	lr, r6, r2
 800080a:	eb75 0e03 	sbcs.w	lr, r5, r3
 800080e:	bf22      	ittt	cs
 8000810:	1ab6      	subcs	r6, r6, r2
 8000812:	4675      	movcs	r5, lr
 8000814:	ea40 00dc 	orrcs.w	r0, r0, ip, lsr #3
 8000818:	ea55 0e06 	orrs.w	lr, r5, r6
 800081c:	d018      	beq.n	8000850 <__aeabi_ddiv+0x114>
 800081e:	ea4f 1505 	mov.w	r5, r5, lsl #4
 8000822:	ea45 7516 	orr.w	r5, r5, r6, lsr #28
 8000826:	ea4f 1606 	mov.w	r6, r6, lsl #4
 800082a:	ea4f 03c3 	mov.w	r3, r3, lsl #3
 800082e:	ea43 7352 	orr.w	r3, r3, r2, lsr #29
 8000832:	ea4f 02c2 	mov.w	r2, r2, lsl #3
 8000836:	ea5f 1c1c 	movs.w	ip, ip, lsr #4
 800083a:	d1c0      	bne.n	80007be <__aeabi_ddiv+0x82>
 800083c:	f411 1f80 	tst.w	r1, #1048576	; 0x100000
 8000840:	d10b      	bne.n	800085a <__aeabi_ddiv+0x11e>
 8000842:	ea41 0100 	orr.w	r1, r1, r0
 8000846:	f04f 0000 	mov.w	r0, #0
 800084a:	f04f 4c00 	mov.w	ip, #2147483648	; 0x80000000
 800084e:	e7b6      	b.n	80007be <__aeabi_ddiv+0x82>
 8000850:	f411 1f80 	tst.w	r1, #1048576	; 0x100000
 8000854:	bf04      	itt	eq
 8000856:	4301      	orreq	r1, r0
 8000858:	2000      	moveq	r0, #0
 800085a:	f1b4 0cfd 	subs.w	ip, r4, #253	; 0xfd
 800085e:	bf88      	it	hi
 8000860:	f5bc 6fe0 	cmphi.w	ip, #1792	; 0x700
 8000864:	f63f aeaf 	bhi.w	80005c6 <__aeabi_dmul+0xde>
 8000868:	ebb5 0c03 	subs.w	ip, r5, r3
 800086c:	bf04      	itt	eq
 800086e:	ebb6 0c02 	subseq.w	ip, r6, r2
 8000872:	ea5f 0c50 	movseq.w	ip, r0, lsr #1
 8000876:	f150 0000 	adcs.w	r0, r0, #0
 800087a:	eb41 5104 	adc.w	r1, r1, r4, lsl #20
 800087e:	bd70      	pop	{r4, r5, r6, pc}
 8000880:	f00e 4e00 	and.w	lr, lr, #2147483648	; 0x80000000
 8000884:	ea4e 3111 	orr.w	r1, lr, r1, lsr #12
 8000888:	eb14 045c 	adds.w	r4, r4, ip, lsr #1
 800088c:	bfc2      	ittt	gt
 800088e:	ebd4 050c 	rsbsgt	r5, r4, ip
 8000892:	ea41 5104 	orrgt.w	r1, r1, r4, lsl #20
 8000896:	bd70      	popgt	{r4, r5, r6, pc}
 8000898:	f441 1180 	orr.w	r1, r1, #1048576	; 0x100000
 800089c:	f04f 0e00 	mov.w	lr, #0
 80008a0:	3c01      	subs	r4, #1
 80008a2:	e690      	b.n	80005c6 <__aeabi_dmul+0xde>
 80008a4:	ea45 0e06 	orr.w	lr, r5, r6
 80008a8:	e68d      	b.n	80005c6 <__aeabi_dmul+0xde>
 80008aa:	ea0c 5513 	and.w	r5, ip, r3, lsr #20
 80008ae:	ea94 0f0c 	teq	r4, ip
 80008b2:	bf08      	it	eq
 80008b4:	ea95 0f0c 	teqeq	r5, ip
 80008b8:	f43f af3b 	beq.w	8000732 <__aeabi_dmul+0x24a>
 80008bc:	ea94 0f0c 	teq	r4, ip
 80008c0:	d10a      	bne.n	80008d8 <__aeabi_ddiv+0x19c>
 80008c2:	ea50 3401 	orrs.w	r4, r0, r1, lsl #12
 80008c6:	f47f af34 	bne.w	8000732 <__aeabi_dmul+0x24a>
 80008ca:	ea95 0f0c 	teq	r5, ip
 80008ce:	f47f af25 	bne.w	800071c <__aeabi_dmul+0x234>
 80008d2:	4610      	mov	r0, r2
 80008d4:	4619      	mov	r1, r3
 80008d6:	e72c      	b.n	8000732 <__aeabi_dmul+0x24a>
 80008d8:	ea95 0f0c 	teq	r5, ip
 80008dc:	d106      	bne.n	80008ec <__aeabi_ddiv+0x1b0>
 80008de:	ea52 3503 	orrs.w	r5, r2, r3, lsl #12
 80008e2:	f43f aefd 	beq.w	80006e0 <__aeabi_dmul+0x1f8>
 80008e6:	4610      	mov	r0, r2
 80008e8:	4619      	mov	r1, r3
 80008ea:	e722      	b.n	8000732 <__aeabi_dmul+0x24a>
 80008ec:	ea50 0641 	orrs.w	r6, r0, r1, lsl #1
 80008f0:	bf18      	it	ne
 80008f2:	ea52 0643 	orrsne.w	r6, r2, r3, lsl #1
 80008f6:	f47f aec5 	bne.w	8000684 <__aeabi_dmul+0x19c>
 80008fa:	ea50 0441 	orrs.w	r4, r0, r1, lsl #1
 80008fe:	f47f af0d 	bne.w	800071c <__aeabi_dmul+0x234>
 8000902:	ea52 0543 	orrs.w	r5, r2, r3, lsl #1
 8000906:	f47f aeeb 	bne.w	80006e0 <__aeabi_dmul+0x1f8>
 800090a:	e712      	b.n	8000732 <__aeabi_dmul+0x24a>

0800090c <__aeabi_d2iz>:
 800090c:	ea4f 0241 	mov.w	r2, r1, lsl #1
 8000910:	f512 1200 	adds.w	r2, r2, #2097152	; 0x200000
 8000914:	d215      	bcs.n	8000942 <__aeabi_d2iz+0x36>
 8000916:	d511      	bpl.n	800093c <__aeabi_d2iz+0x30>
 8000918:	f46f 7378 	mvn.w	r3, #992	; 0x3e0
 800091c:	ebb3 5262 	subs.w	r2, r3, r2, asr #21
 8000920:	d912      	bls.n	8000948 <__aeabi_d2iz+0x3c>
 8000922:	ea4f 23c1 	mov.w	r3, r1, lsl #11
 8000926:	f043 4300 	orr.w	r3, r3, #2147483648	; 0x80000000
 800092a:	ea43 5350 	orr.w	r3, r3, r0, lsr #21
 800092e:	f011 4f00 	tst.w	r1, #2147483648	; 0x80000000
 8000932:	fa23 f002 	lsr.w	r0, r3, r2
 8000936:	bf18      	it	ne
 8000938:	4240      	negne	r0, r0
 800093a:	4770      	bx	lr
 800093c:	f04f 0000 	mov.w	r0, #0
 8000940:	4770      	bx	lr
 8000942:	ea50 3001 	orrs.w	r0, r0, r1, lsl #12
 8000946:	d105      	bne.n	8000954 <__aeabi_d2iz+0x48>
 8000948:	f011 4000 	ands.w	r0, r1, #2147483648	; 0x80000000
 800094c:	bf08      	it	eq
 800094e:	f06f 4000 	mvneq.w	r0, #2147483648	; 0x80000000
 8000952:	4770      	bx	lr
 8000954:	f04f 0000 	mov.w	r0, #0
 8000958:	4770      	bx	lr
 800095a:	bf00      	nop

0800095c <__aeabi_d2f>:
 800095c:	ea4f 0241 	mov.w	r2, r1, lsl #1
 8000960:	f1b2 43e0 	subs.w	r3, r2, #1879048192	; 0x70000000
 8000964:	bf24      	itt	cs
 8000966:	f5b3 1c00 	subscs.w	ip, r3, #2097152	; 0x200000
 800096a:	f1dc 5cfe 	rsbscs	ip, ip, #532676608	; 0x1fc00000
 800096e:	d90d      	bls.n	800098c <__aeabi_d2f+0x30>
 8000970:	f001 4c00 	and.w	ip, r1, #2147483648	; 0x80000000
 8000974:	ea4f 02c0 	mov.w	r2, r0, lsl #3
 8000978:	ea4c 7050 	orr.w	r0, ip, r0, lsr #29
 800097c:	f1b2 4f00 	cmp.w	r2, #2147483648	; 0x80000000
 8000980:	eb40 0083 	adc.w	r0, r0, r3, lsl #2
 8000984:	bf08      	it	eq
 8000986:	f020 0001 	biceq.w	r0, r0, #1
 800098a:	4770      	bx	lr
 800098c:	f011 4f80 	tst.w	r1, #1073741824	; 0x40000000
 8000990:	d121      	bne.n	80009d6 <__aeabi_d2f+0x7a>
 8000992:	f113 7238 	adds.w	r2, r3, #48234496	; 0x2e00000
 8000996:	bfbc      	itt	lt
 8000998:	f001 4000 	andlt.w	r0, r1, #2147483648	; 0x80000000
 800099c:	4770      	bxlt	lr
 800099e:	f441 1180 	orr.w	r1, r1, #1048576	; 0x100000
 80009a2:	ea4f 5252 	mov.w	r2, r2, lsr #21
 80009a6:	f1c2 0218 	rsb	r2, r2, #24
 80009aa:	f1c2 0c20 	rsb	ip, r2, #32
 80009ae:	fa10 f30c 	lsls.w	r3, r0, ip
 80009b2:	fa20 f002 	lsr.w	r0, r0, r2
 80009b6:	bf18      	it	ne
 80009b8:	f040 0001 	orrne.w	r0, r0, #1
 80009bc:	ea4f 23c1 	mov.w	r3, r1, lsl #11
 80009c0:	ea4f 23d3 	mov.w	r3, r3, lsr #11
 80009c4:	fa03 fc0c 	lsl.w	ip, r3, ip
 80009c8:	ea40 000c 	orr.w	r0, r0, ip
 80009cc:	fa23 f302 	lsr.w	r3, r3, r2
 80009d0:	ea4f 0343 	mov.w	r3, r3, lsl #1
 80009d4:	e7cc      	b.n	8000970 <__aeabi_d2f+0x14>
 80009d6:	ea7f 5362 	mvns.w	r3, r2, asr #21
 80009da:	d107      	bne.n	80009ec <__aeabi_d2f+0x90>
 80009dc:	ea50 3301 	orrs.w	r3, r0, r1, lsl #12
 80009e0:	bf1e      	ittt	ne
 80009e2:	f04f 40fe 	movne.w	r0, #2130706432	; 0x7f000000
 80009e6:	f440 0040 	orrne.w	r0, r0, #12582912	; 0xc00000
 80009ea:	4770      	bxne	lr
 80009ec:	f001 4000 	and.w	r0, r1, #2147483648	; 0x80000000
 80009f0:	f040 40fe 	orr.w	r0, r0, #2130706432	; 0x7f000000
 80009f4:	f440 0000 	orr.w	r0, r0, #8388608	; 0x800000
 80009f8:	4770      	bx	lr
 80009fa:	bf00      	nop

080009fc <__aeabi_frsub>:
 80009fc:	f080 4000 	eor.w	r0, r0, #2147483648	; 0x80000000
 8000a00:	e002      	b.n	8000a08 <__addsf3>
 8000a02:	bf00      	nop

08000a04 <__aeabi_fsub>:
 8000a04:	f081 4100 	eor.w	r1, r1, #2147483648	; 0x80000000

08000a08 <__addsf3>:
 8000a08:	0042      	lsls	r2, r0, #1
 8000a0a:	bf1f      	itttt	ne
 8000a0c:	ea5f 0341 	movsne.w	r3, r1, lsl #1
 8000a10:	ea92 0f03 	teqne	r2, r3
 8000a14:	ea7f 6c22 	mvnsne.w	ip, r2, asr #24
 8000a18:	ea7f 6c23 	mvnsne.w	ip, r3, asr #24
 8000a1c:	d06a      	beq.n	8000af4 <__addsf3+0xec>
 8000a1e:	ea4f 6212 	mov.w	r2, r2, lsr #24
 8000a22:	ebd2 6313 	rsbs	r3, r2, r3, lsr #24
 8000a26:	bfc1      	itttt	gt
 8000a28:	18d2      	addgt	r2, r2, r3
 8000a2a:	4041      	eorgt	r1, r0
 8000a2c:	4048      	eorgt	r0, r1
 8000a2e:	4041      	eorgt	r1, r0
 8000a30:	bfb8      	it	lt
 8000a32:	425b      	neglt	r3, r3
 8000a34:	2b19      	cmp	r3, #25
 8000a36:	bf88      	it	hi
 8000a38:	4770      	bxhi	lr
 8000a3a:	f010 4f00 	tst.w	r0, #2147483648	; 0x80000000
 8000a3e:	f440 0000 	orr.w	r0, r0, #8388608	; 0x800000
 8000a42:	f020 407f 	bic.w	r0, r0, #4278190080	; 0xff000000
 8000a46:	bf18      	it	ne
 8000a48:	4240      	negne	r0, r0
 8000a4a:	f011 4f00 	tst.w	r1, #2147483648	; 0x80000000
 8000a4e:	f441 0100 	orr.w	r1, r1, #8388608	; 0x800000
 8000a52:	f021 417f 	bic.w	r1, r1, #4278190080	; 0xff000000
 8000a56:	bf18      	it	ne
 8000a58:	4249      	negne	r1, r1
 8000a5a:	ea92 0f03 	teq	r2, r3
 8000a5e:	d03f      	beq.n	8000ae0 <__addsf3+0xd8>
 8000a60:	f1a2 0201 	sub.w	r2, r2, #1
 8000a64:	fa41 fc03 	asr.w	ip, r1, r3
 8000a68:	eb10 000c 	adds.w	r0, r0, ip
 8000a6c:	f1c3 0320 	rsb	r3, r3, #32
 8000a70:	fa01 f103 	lsl.w	r1, r1, r3
 8000a74:	f000 4300 	and.w	r3, r0, #2147483648	; 0x80000000
 8000a78:	d502      	bpl.n	8000a80 <__addsf3+0x78>
 8000a7a:	4249      	negs	r1, r1
 8000a7c:	eb60 0040 	sbc.w	r0, r0, r0, lsl #1
 8000a80:	f5b0 0f00 	cmp.w	r0, #8388608	; 0x800000
 8000a84:	d313      	bcc.n	8000aae <__addsf3+0xa6>
 8000a86:	f1b0 7f80 	cmp.w	r0, #16777216	; 0x1000000
 8000a8a:	d306      	bcc.n	8000a9a <__addsf3+0x92>
 8000a8c:	0840      	lsrs	r0, r0, #1
 8000a8e:	ea4f 0131 	mov.w	r1, r1, rrx
 8000a92:	f102 0201 	add.w	r2, r2, #1
 8000a96:	2afe      	cmp	r2, #254	; 0xfe
 8000a98:	d251      	bcs.n	8000b3e <__addsf3+0x136>
 8000a9a:	f1b1 4f00 	cmp.w	r1, #2147483648	; 0x80000000
 8000a9e:	eb40 50c2 	adc.w	r0, r0, r2, lsl #23
 8000aa2:	bf08      	it	eq
 8000aa4:	f020 0001 	biceq.w	r0, r0, #1
 8000aa8:	ea40 0003 	orr.w	r0, r0, r3
 8000aac:	4770      	bx	lr
 8000aae:	0049      	lsls	r1, r1, #1
 8000ab0:	eb40 0000 	adc.w	r0, r0, r0
 8000ab4:	3a01      	subs	r2, #1
 8000ab6:	bf28      	it	cs
 8000ab8:	f5b0 0f00 	cmpcs.w	r0, #8388608	; 0x800000
 8000abc:	d2ed      	bcs.n	8000a9a <__addsf3+0x92>
 8000abe:	fab0 fc80 	clz	ip, r0
 8000ac2:	f1ac 0c08 	sub.w	ip, ip, #8
 8000ac6:	ebb2 020c 	subs.w	r2, r2, ip
 8000aca:	fa00 f00c 	lsl.w	r0, r0, ip
 8000ace:	bfaa      	itet	ge
 8000ad0:	eb00 50c2 	addge.w	r0, r0, r2, lsl #23
 8000ad4:	4252      	neglt	r2, r2
 8000ad6:	4318      	orrge	r0, r3
 8000ad8:	bfbc      	itt	lt
 8000ada:	40d0      	lsrlt	r0, r2
 8000adc:	4318      	orrlt	r0, r3
 8000ade:	4770      	bx	lr
 8000ae0:	f092 0f00 	teq	r2, #0
 8000ae4:	f481 0100 	eor.w	r1, r1, #8388608	; 0x800000
 8000ae8:	bf06      	itte	eq
 8000aea:	f480 0000 	eoreq.w	r0, r0, #8388608	; 0x800000
 8000aee:	3201      	addeq	r2, #1
 8000af0:	3b01      	subne	r3, #1
 8000af2:	e7b5      	b.n	8000a60 <__addsf3+0x58>
 8000af4:	ea4f 0341 	mov.w	r3, r1, lsl #1
 8000af8:	ea7f 6c22 	mvns.w	ip, r2, asr #24
 8000afc:	bf18      	it	ne
 8000afe:	ea7f 6c23 	mvnsne.w	ip, r3, asr #24
 8000b02:	d021      	beq.n	8000b48 <__addsf3+0x140>
 8000b04:	ea92 0f03 	teq	r2, r3
 8000b08:	d004      	beq.n	8000b14 <__addsf3+0x10c>
 8000b0a:	f092 0f00 	teq	r2, #0
 8000b0e:	bf08      	it	eq
 8000b10:	4608      	moveq	r0, r1
 8000b12:	4770      	bx	lr
 8000b14:	ea90 0f01 	teq	r0, r1
 8000b18:	bf1c      	itt	ne
 8000b1a:	2000      	movne	r0, #0
 8000b1c:	4770      	bxne	lr
 8000b1e:	f012 4f7f 	tst.w	r2, #4278190080	; 0xff000000
 8000b22:	d104      	bne.n	8000b2e <__addsf3+0x126>
 8000b24:	0040      	lsls	r0, r0, #1
 8000b26:	bf28      	it	cs
 8000b28:	f040 4000 	orrcs.w	r0, r0, #2147483648	; 0x80000000
 8000b2c:	4770      	bx	lr
 8000b2e:	f112 7200 	adds.w	r2, r2, #33554432	; 0x2000000
 8000b32:	bf3c      	itt	cc
 8000b34:	f500 0000 	addcc.w	r0, r0, #8388608	; 0x800000
 8000b38:	4770      	bxcc	lr
 8000b3a:	f000 4300 	and.w	r3, r0, #2147483648	; 0x80000000
 8000b3e:	f043 40fe 	orr.w	r0, r3, #2130706432	; 0x7f000000
 8000b42:	f440 0000 	orr.w	r0, r0, #8388608	; 0x800000
 8000b46:	4770      	bx	lr
 8000b48:	ea7f 6222 	mvns.w	r2, r2, asr #24
 8000b4c:	bf16      	itet	ne
 8000b4e:	4608      	movne	r0, r1
 8000b50:	ea7f 6323 	mvnseq.w	r3, r3, asr #24
 8000b54:	4601      	movne	r1, r0
 8000b56:	0242      	lsls	r2, r0, #9
 8000b58:	bf06      	itte	eq
 8000b5a:	ea5f 2341 	movseq.w	r3, r1, lsl #9
 8000b5e:	ea90 0f01 	teqeq	r0, r1
 8000b62:	f440 0080 	orrne.w	r0, r0, #4194304	; 0x400000
 8000b66:	4770      	bx	lr

08000b68 <__aeabi_ui2f>:
 8000b68:	f04f 0300 	mov.w	r3, #0
 8000b6c:	e004      	b.n	8000b78 <__aeabi_i2f+0x8>
 8000b6e:	bf00      	nop

08000b70 <__aeabi_i2f>:
 8000b70:	f010 4300 	ands.w	r3, r0, #2147483648	; 0x80000000
 8000b74:	bf48      	it	mi
 8000b76:	4240      	negmi	r0, r0
 8000b78:	ea5f 0c00 	movs.w	ip, r0
 8000b7c:	bf08      	it	eq
 8000b7e:	4770      	bxeq	lr
 8000b80:	f043 4396 	orr.w	r3, r3, #1258291200	; 0x4b000000
 8000b84:	4601      	mov	r1, r0
 8000b86:	f04f 0000 	mov.w	r0, #0
 8000b8a:	e01c      	b.n	8000bc6 <__aeabi_l2f+0x2a>

08000b8c <__aeabi_ul2f>:
 8000b8c:	ea50 0201 	orrs.w	r2, r0, r1
 8000b90:	bf08      	it	eq
 8000b92:	4770      	bxeq	lr
 8000b94:	f04f 0300 	mov.w	r3, #0
 8000b98:	e00a      	b.n	8000bb0 <__aeabi_l2f+0x14>
 8000b9a:	bf00      	nop

08000b9c <__aeabi_l2f>:
 8000b9c:	ea50 0201 	orrs.w	r2, r0, r1
 8000ba0:	bf08      	it	eq
 8000ba2:	4770      	bxeq	lr
 8000ba4:	f011 4300 	ands.w	r3, r1, #2147483648	; 0x80000000
 8000ba8:	d502      	bpl.n	8000bb0 <__aeabi_l2f+0x14>
 8000baa:	4240      	negs	r0, r0
 8000bac:	eb61 0141 	sbc.w	r1, r1, r1, lsl #1
 8000bb0:	ea5f 0c01 	movs.w	ip, r1
 8000bb4:	bf02      	ittt	eq
 8000bb6:	4684      	moveq	ip, r0
 8000bb8:	4601      	moveq	r1, r0
 8000bba:	2000      	moveq	r0, #0
 8000bbc:	f043 43b6 	orr.w	r3, r3, #1526726656	; 0x5b000000
 8000bc0:	bf08      	it	eq
 8000bc2:	f1a3 5380 	subeq.w	r3, r3, #268435456	; 0x10000000
 8000bc6:	f5a3 0300 	sub.w	r3, r3, #8388608	; 0x800000
 8000bca:	fabc f28c 	clz	r2, ip
 8000bce:	3a08      	subs	r2, #8
 8000bd0:	eba3 53c2 	sub.w	r3, r3, r2, lsl #23
 8000bd4:	db10      	blt.n	8000bf8 <__aeabi_l2f+0x5c>
 8000bd6:	fa01 fc02 	lsl.w	ip, r1, r2
 8000bda:	4463      	add	r3, ip
 8000bdc:	fa00 fc02 	lsl.w	ip, r0, r2
 8000be0:	f1c2 0220 	rsb	r2, r2, #32
 8000be4:	f1bc 4f00 	cmp.w	ip, #2147483648	; 0x80000000
 8000be8:	fa20 f202 	lsr.w	r2, r0, r2
 8000bec:	eb43 0002 	adc.w	r0, r3, r2
 8000bf0:	bf08      	it	eq
 8000bf2:	f020 0001 	biceq.w	r0, r0, #1
 8000bf6:	4770      	bx	lr
 8000bf8:	f102 0220 	add.w	r2, r2, #32
 8000bfc:	fa01 fc02 	lsl.w	ip, r1, r2
 8000c00:	f1c2 0220 	rsb	r2, r2, #32
 8000c04:	ea50 004c 	orrs.w	r0, r0, ip, lsl #1
 8000c08:	fa21 f202 	lsr.w	r2, r1, r2
 8000c0c:	eb43 0002 	adc.w	r0, r3, r2
 8000c10:	bf08      	it	eq
 8000c12:	ea20 70dc 	biceq.w	r0, r0, ip, lsr #31
 8000c16:	4770      	bx	lr

08000c18 <__aeabi_fmul>:
 8000c18:	f04f 0cff 	mov.w	ip, #255	; 0xff
 8000c1c:	ea1c 52d0 	ands.w	r2, ip, r0, lsr #23
 8000c20:	bf1e      	ittt	ne
 8000c22:	ea1c 53d1 	andsne.w	r3, ip, r1, lsr #23
 8000c26:	ea92 0f0c 	teqne	r2, ip
 8000c2a:	ea93 0f0c 	teqne	r3, ip
 8000c2e:	d06f      	beq.n	8000d10 <__aeabi_fmul+0xf8>
 8000c30:	441a      	add	r2, r3
 8000c32:	ea80 0c01 	eor.w	ip, r0, r1
 8000c36:	0240      	lsls	r0, r0, #9
 8000c38:	bf18      	it	ne
 8000c3a:	ea5f 2141 	movsne.w	r1, r1, lsl #9
 8000c3e:	d01e      	beq.n	8000c7e <__aeabi_fmul+0x66>
 8000c40:	f04f 6300 	mov.w	r3, #134217728	; 0x8000000
 8000c44:	ea43 1050 	orr.w	r0, r3, r0, lsr #5
 8000c48:	ea43 1151 	orr.w	r1, r3, r1, lsr #5
 8000c4c:	fba0 3101 	umull	r3, r1, r0, r1
 8000c50:	f00c 4000 	and.w	r0, ip, #2147483648	; 0x80000000
 8000c54:	f5b1 0f00 	cmp.w	r1, #8388608	; 0x800000
 8000c58:	bf3e      	ittt	cc
 8000c5a:	0049      	lslcc	r1, r1, #1
 8000c5c:	ea41 71d3 	orrcc.w	r1, r1, r3, lsr #31
 8000c60:	005b      	lslcc	r3, r3, #1
 8000c62:	ea40 0001 	orr.w	r0, r0, r1
 8000c66:	f162 027f 	sbc.w	r2, r2, #127	; 0x7f
 8000c6a:	2afd      	cmp	r2, #253	; 0xfd
 8000c6c:	d81d      	bhi.n	8000caa <__aeabi_fmul+0x92>
 8000c6e:	f1b3 4f00 	cmp.w	r3, #2147483648	; 0x80000000
 8000c72:	eb40 50c2 	adc.w	r0, r0, r2, lsl #23
 8000c76:	bf08      	it	eq
 8000c78:	f020 0001 	biceq.w	r0, r0, #1
 8000c7c:	4770      	bx	lr
 8000c7e:	f090 0f00 	teq	r0, #0
 8000c82:	f00c 4c00 	and.w	ip, ip, #2147483648	; 0x80000000
 8000c86:	bf08      	it	eq
 8000c88:	0249      	lsleq	r1, r1, #9
 8000c8a:	ea4c 2050 	orr.w	r0, ip, r0, lsr #9
 8000c8e:	ea40 2051 	orr.w	r0, r0, r1, lsr #9
 8000c92:	3a7f      	subs	r2, #127	; 0x7f
 8000c94:	bfc2      	ittt	gt
 8000c96:	f1d2 03ff 	rsbsgt	r3, r2, #255	; 0xff
 8000c9a:	ea40 50c2 	orrgt.w	r0, r0, r2, lsl #23
 8000c9e:	4770      	bxgt	lr
 8000ca0:	f440 0000 	orr.w	r0, r0, #8388608	; 0x800000
 8000ca4:	f04f 0300 	mov.w	r3, #0
 8000ca8:	3a01      	subs	r2, #1
 8000caa:	dc5d      	bgt.n	8000d68 <__aeabi_fmul+0x150>
 8000cac:	f112 0f19 	cmn.w	r2, #25
 8000cb0:	bfdc      	itt	le
 8000cb2:	f000 4000 	andle.w	r0, r0, #2147483648	; 0x80000000
 8000cb6:	4770      	bxle	lr
 8000cb8:	f1c2 0200 	rsb	r2, r2, #0
 8000cbc:	0041      	lsls	r1, r0, #1
 8000cbe:	fa21 f102 	lsr.w	r1, r1, r2
 8000cc2:	f1c2 0220 	rsb	r2, r2, #32
 8000cc6:	fa00 fc02 	lsl.w	ip, r0, r2
 8000cca:	ea5f 0031 	movs.w	r0, r1, rrx
 8000cce:	f140 0000 	adc.w	r0, r0, #0
 8000cd2:	ea53 034c 	orrs.w	r3, r3, ip, lsl #1
 8000cd6:	bf08      	it	eq
 8000cd8:	ea20 70dc 	biceq.w	r0, r0, ip, lsr #31
 8000cdc:	4770      	bx	lr
 8000cde:	f092 0f00 	teq	r2, #0
 8000ce2:	f000 4c00 	and.w	ip, r0, #2147483648	; 0x80000000
 8000ce6:	bf02      	ittt	eq
 8000ce8:	0040      	lsleq	r0, r0, #1
 8000cea:	f410 0f00 	tsteq.w	r0, #8388608	; 0x800000
 8000cee:	3a01      	subeq	r2, #1
 8000cf0:	d0f9      	beq.n	8000ce6 <__aeabi_fmul+0xce>
 8000cf2:	ea40 000c 	orr.w	r0, r0, ip
 8000cf6:	f093 0f00 	teq	r3, #0
 8000cfa:	f001 4c00 	and.w	ip, r1, #2147483648	; 0x80000000
 8000cfe:	bf02      	ittt	eq
 8000d00:	0049      	lsleq	r1, r1, #1
 8000d02:	f411 0f00 	tsteq.w	r1, #8388608	; 0x800000
 8000d06:	3b01      	subeq	r3, #1
 8000d08:	d0f9      	beq.n	8000cfe <__aeabi_fmul+0xe6>
 8000d0a:	ea41 010c 	orr.w	r1, r1, ip
 8000d0e:	e78f      	b.n	8000c30 <__aeabi_fmul+0x18>
 8000d10:	ea0c 53d1 	and.w	r3, ip, r1, lsr #23
 8000d14:	ea92 0f0c 	teq	r2, ip
 8000d18:	bf18      	it	ne
 8000d1a:	ea93 0f0c 	teqne	r3, ip
 8000d1e:	d00a      	beq.n	8000d36 <__aeabi_fmul+0x11e>
 8000d20:	f030 4c00 	bics.w	ip, r0, #2147483648	; 0x80000000
 8000d24:	bf18      	it	ne
 8000d26:	f031 4c00 	bicsne.w	ip, r1, #2147483648	; 0x80000000
 8000d2a:	d1d8      	bne.n	8000cde <__aeabi_fmul+0xc6>
 8000d2c:	ea80 0001 	eor.w	r0, r0, r1
 8000d30:	f000 4000 	and.w	r0, r0, #2147483648	; 0x80000000
 8000d34:	4770      	bx	lr
 8000d36:	f090 0f00 	teq	r0, #0
 8000d3a:	bf17      	itett	ne
 8000d3c:	f090 4f00 	teqne	r0, #2147483648	; 0x80000000
 8000d40:	4608      	moveq	r0, r1
 8000d42:	f091 0f00 	teqne	r1, #0
 8000d46:	f091 4f00 	teqne	r1, #2147483648	; 0x80000000
 8000d4a:	d014      	beq.n	8000d76 <__aeabi_fmul+0x15e>
 8000d4c:	ea92 0f0c 	teq	r2, ip
 8000d50:	d101      	bne.n	8000d56 <__aeabi_fmul+0x13e>
 8000d52:	0242      	lsls	r2, r0, #9
 8000d54:	d10f      	bne.n	8000d76 <__aeabi_fmul+0x15e>
 8000d56:	ea93 0f0c 	teq	r3, ip
 8000d5a:	d103      	bne.n	8000d64 <__aeabi_fmul+0x14c>
 8000d5c:	024b      	lsls	r3, r1, #9
 8000d5e:	bf18      	it	ne
 8000d60:	4608      	movne	r0, r1
 8000d62:	d108      	bne.n	8000d76 <__aeabi_fmul+0x15e>
 8000d64:	ea80 0001 	eor.w	r0, r0, r1
 8000d68:	f000 4000 	and.w	r0, r0, #2147483648	; 0x80000000
 8000d6c:	f040 40fe 	orr.w	r0, r0, #2130706432	; 0x7f000000
 8000d70:	f440 0000 	orr.w	r0, r0, #8388608	; 0x800000
 8000d74:	4770      	bx	lr
 8000d76:	f040 40fe 	orr.w	r0, r0, #2130706432	; 0x7f000000
 8000d7a:	f440 0040 	orr.w	r0, r0, #12582912	; 0xc00000
 8000d7e:	4770      	bx	lr

08000d80 <__aeabi_fdiv>:
 8000d80:	f04f 0cff 	mov.w	ip, #255	; 0xff
 8000d84:	ea1c 52d0 	ands.w	r2, ip, r0, lsr #23
 8000d88:	bf1e      	ittt	ne
 8000d8a:	ea1c 53d1 	andsne.w	r3, ip, r1, lsr #23
 8000d8e:	ea92 0f0c 	teqne	r2, ip
 8000d92:	ea93 0f0c 	teqne	r3, ip
 8000d96:	d069      	beq.n	8000e6c <__aeabi_fdiv+0xec>
 8000d98:	eba2 0203 	sub.w	r2, r2, r3
 8000d9c:	ea80 0c01 	eor.w	ip, r0, r1
 8000da0:	0249      	lsls	r1, r1, #9
 8000da2:	ea4f 2040 	mov.w	r0, r0, lsl #9
 8000da6:	d037      	beq.n	8000e18 <__aeabi_fdiv+0x98>
 8000da8:	f04f 5380 	mov.w	r3, #268435456	; 0x10000000
 8000dac:	ea43 1111 	orr.w	r1, r3, r1, lsr #4
 8000db0:	ea43 1310 	orr.w	r3, r3, r0, lsr #4
 8000db4:	f00c 4000 	and.w	r0, ip, #2147483648	; 0x80000000
 8000db8:	428b      	cmp	r3, r1
 8000dba:	bf38      	it	cc
 8000dbc:	005b      	lslcc	r3, r3, #1
 8000dbe:	f142 027d 	adc.w	r2, r2, #125	; 0x7d
 8000dc2:	f44f 0c00 	mov.w	ip, #8388608	; 0x800000
 8000dc6:	428b      	cmp	r3, r1
 8000dc8:	bf24      	itt	cs
 8000dca:	1a5b      	subcs	r3, r3, r1
 8000dcc:	ea40 000c 	orrcs.w	r0, r0, ip
 8000dd0:	ebb3 0f51 	cmp.w	r3, r1, lsr #1
 8000dd4:	bf24      	itt	cs
 8000dd6:	eba3 0351 	subcs.w	r3, r3, r1, lsr #1
 8000dda:	ea40 005c 	orrcs.w	r0, r0, ip, lsr #1
 8000dde:	ebb3 0f91 	cmp.w	r3, r1, lsr #2
 8000de2:	bf24      	itt	cs
 8000de4:	eba3 0391 	subcs.w	r3, r3, r1, lsr #2
 8000de8:	ea40 009c 	orrcs.w	r0, r0, ip, lsr #2
 8000dec:	ebb3 0fd1 	cmp.w	r3, r1, lsr #3
 8000df0:	bf24      	itt	cs
 8000df2:	eba3 03d1 	subcs.w	r3, r3, r1, lsr #3
 8000df6:	ea40 00dc 	orrcs.w	r0, r0, ip, lsr #3
 8000dfa:	011b      	lsls	r3, r3, #4
 8000dfc:	bf18      	it	ne
 8000dfe:	ea5f 1c1c 	movsne.w	ip, ip, lsr #4
 8000e02:	d1e0      	bne.n	8000dc6 <__aeabi_fdiv+0x46>
 8000e04:	2afd      	cmp	r2, #253	; 0xfd
 8000e06:	f63f af50 	bhi.w	8000caa <__aeabi_fmul+0x92>
 8000e0a:	428b      	cmp	r3, r1
 8000e0c:	eb40 50c2 	adc.w	r0, r0, r2, lsl #23
 8000e10:	bf08      	it	eq
 8000e12:	f020 0001 	biceq.w	r0, r0, #1
 8000e16:	4770      	bx	lr
 8000e18:	f00c 4c00 	and.w	ip, ip, #2147483648	; 0x80000000
 8000e1c:	ea4c 2050 	orr.w	r0, ip, r0, lsr #9
 8000e20:	327f      	adds	r2, #127	; 0x7f
 8000e22:	bfc2      	ittt	gt
 8000e24:	f1d2 03ff 	rsbsgt	r3, r2, #255	; 0xff
 8000e28:	ea40 50c2 	orrgt.w	r0, r0, r2, lsl #23
 8000e2c:	4770      	bxgt	lr
 8000e2e:	f440 0000 	orr.w	r0, r0, #8388608	; 0x800000
 8000e32:	f04f 0300 	mov.w	r3, #0
 8000e36:	3a01      	subs	r2, #1
 8000e38:	e737      	b.n	8000caa <__aeabi_fmul+0x92>
 8000e3a:	f092 0f00 	teq	r2, #0
 8000e3e:	f000 4c00 	and.w	ip, r0, #2147483648	; 0x80000000
 8000e42:	bf02      	ittt	eq
 8000e44:	0040      	lsleq	r0, r0, #1
 8000e46:	f410 0f00 	tsteq.w	r0, #8388608	; 0x800000
 8000e4a:	3a01      	subeq	r2, #1
 8000e4c:	d0f9      	beq.n	8000e42 <__aeabi_fdiv+0xc2>
 8000e4e:	ea40 000c 	orr.w	r0, r0, ip
 8000e52:	f093 0f00 	teq	r3, #0
 8000e56:	f001 4c00 	and.w	ip, r1, #2147483648	; 0x80000000
 8000e5a:	bf02      	ittt	eq
 8000e5c:	0049      	lsleq	r1, r1, #1
 8000e5e:	f411 0f00 	tsteq.w	r1, #8388608	; 0x800000
 8000e62:	3b01      	subeq	r3, #1
 8000e64:	d0f9      	beq.n	8000e5a <__aeabi_fdiv+0xda>
 8000e66:	ea41 010c 	orr.w	r1, r1, ip
 8000e6a:	e795      	b.n	8000d98 <__aeabi_fdiv+0x18>
 8000e6c:	ea0c 53d1 	and.w	r3, ip, r1, lsr #23
 8000e70:	ea92 0f0c 	teq	r2, ip
 8000e74:	d108      	bne.n	8000e88 <__aeabi_fdiv+0x108>
 8000e76:	0242      	lsls	r2, r0, #9
 8000e78:	f47f af7d 	bne.w	8000d76 <__aeabi_fmul+0x15e>
 8000e7c:	ea93 0f0c 	teq	r3, ip
 8000e80:	f47f af70 	bne.w	8000d64 <__aeabi_fmul+0x14c>
 8000e84:	4608      	mov	r0, r1
 8000e86:	e776      	b.n	8000d76 <__aeabi_fmul+0x15e>
 8000e88:	ea93 0f0c 	teq	r3, ip
 8000e8c:	d104      	bne.n	8000e98 <__aeabi_fdiv+0x118>
 8000e8e:	024b      	lsls	r3, r1, #9
 8000e90:	f43f af4c 	beq.w	8000d2c <__aeabi_fmul+0x114>
 8000e94:	4608      	mov	r0, r1
 8000e96:	e76e      	b.n	8000d76 <__aeabi_fmul+0x15e>
 8000e98:	f030 4c00 	bics.w	ip, r0, #2147483648	; 0x80000000
 8000e9c:	bf18      	it	ne
 8000e9e:	f031 4c00 	bicsne.w	ip, r1, #2147483648	; 0x80000000
 8000ea2:	d1ca      	bne.n	8000e3a <__aeabi_fdiv+0xba>
 8000ea4:	f030 4200 	bics.w	r2, r0, #2147483648	; 0x80000000
 8000ea8:	f47f af5c 	bne.w	8000d64 <__aeabi_fmul+0x14c>
 8000eac:	f031 4300 	bics.w	r3, r1, #2147483648	; 0x80000000
 8000eb0:	f47f af3c 	bne.w	8000d2c <__aeabi_fmul+0x114>
 8000eb4:	e75f      	b.n	8000d76 <__aeabi_fmul+0x15e>
 8000eb6:	bf00      	nop

08000eb8 <__gesf2>:
 8000eb8:	f04f 3cff 	mov.w	ip, #4294967295	; 0xffffffff
 8000ebc:	e006      	b.n	8000ecc <__cmpsf2+0x4>
 8000ebe:	bf00      	nop

08000ec0 <__lesf2>:
 8000ec0:	f04f 0c01 	mov.w	ip, #1
 8000ec4:	e002      	b.n	8000ecc <__cmpsf2+0x4>
 8000ec6:	bf00      	nop

08000ec8 <__cmpsf2>:
 8000ec8:	f04f 0c01 	mov.w	ip, #1
 8000ecc:	f84d cd04 	str.w	ip, [sp, #-4]!
 8000ed0:	ea4f 0240 	mov.w	r2, r0, lsl #1
 8000ed4:	ea4f 0341 	mov.w	r3, r1, lsl #1
 8000ed8:	ea7f 6c22 	mvns.w	ip, r2, asr #24
 8000edc:	bf18      	it	ne
 8000ede:	ea7f 6c23 	mvnsne.w	ip, r3, asr #24
 8000ee2:	d011      	beq.n	8000f08 <__cmpsf2+0x40>
 8000ee4:	b001      	add	sp, #4
 8000ee6:	ea52 0c53 	orrs.w	ip, r2, r3, lsr #1
 8000eea:	bf18      	it	ne
 8000eec:	ea90 0f01 	teqne	r0, r1
 8000ef0:	bf58      	it	pl
 8000ef2:	ebb2 0003 	subspl.w	r0, r2, r3
 8000ef6:	bf88      	it	hi
 8000ef8:	17c8      	asrhi	r0, r1, #31
 8000efa:	bf38      	it	cc
 8000efc:	ea6f 70e1 	mvncc.w	r0, r1, asr #31
 8000f00:	bf18      	it	ne
 8000f02:	f040 0001 	orrne.w	r0, r0, #1
 8000f06:	4770      	bx	lr
 8000f08:	ea7f 6c22 	mvns.w	ip, r2, asr #24
 8000f0c:	d102      	bne.n	8000f14 <__cmpsf2+0x4c>
 8000f0e:	ea5f 2c40 	movs.w	ip, r0, lsl #9
 8000f12:	d105      	bne.n	8000f20 <__cmpsf2+0x58>
 8000f14:	ea7f 6c23 	mvns.w	ip, r3, asr #24
 8000f18:	d1e4      	bne.n	8000ee4 <__cmpsf2+0x1c>
 8000f1a:	ea5f 2c41 	movs.w	ip, r1, lsl #9
 8000f1e:	d0e1      	beq.n	8000ee4 <__cmpsf2+0x1c>
 8000f20:	f85d 0b04 	ldr.w	r0, [sp], #4
 8000f24:	4770      	bx	lr
 8000f26:	bf00      	nop

08000f28 <__aeabi_cfrcmple>:
 8000f28:	4684      	mov	ip, r0
 8000f2a:	4608      	mov	r0, r1
 8000f2c:	4661      	mov	r1, ip
 8000f2e:	e7ff      	b.n	8000f30 <__aeabi_cfcmpeq>

08000f30 <__aeabi_cfcmpeq>:
 8000f30:	b50f      	push	{r0, r1, r2, r3, lr}
 8000f32:	f7ff ffc9 	bl	8000ec8 <__cmpsf2>
 8000f36:	2800      	cmp	r0, #0
 8000f38:	bf48      	it	mi
 8000f3a:	f110 0f00 	cmnmi.w	r0, #0
 8000f3e:	bd0f      	pop	{r0, r1, r2, r3, pc}

08000f40 <__aeabi_fcmpeq>:
 8000f40:	f84d ed08 	str.w	lr, [sp, #-8]!
 8000f44:	f7ff fff4 	bl	8000f30 <__aeabi_cfcmpeq>
 8000f48:	bf0c      	ite	eq
 8000f4a:	2001      	moveq	r0, #1
 8000f4c:	2000      	movne	r0, #0
 8000f4e:	f85d fb08 	ldr.w	pc, [sp], #8
 8000f52:	bf00      	nop

08000f54 <__aeabi_fcmplt>:
 8000f54:	f84d ed08 	str.w	lr, [sp, #-8]!
 8000f58:	f7ff ffea 	bl	8000f30 <__aeabi_cfcmpeq>
 8000f5c:	bf34      	ite	cc
 8000f5e:	2001      	movcc	r0, #1
 8000f60:	2000      	movcs	r0, #0
 8000f62:	f85d fb08 	ldr.w	pc, [sp], #8
 8000f66:	bf00      	nop

08000f68 <__aeabi_fcmple>:
 8000f68:	f84d ed08 	str.w	lr, [sp, #-8]!
 8000f6c:	f7ff ffe0 	bl	8000f30 <__aeabi_cfcmpeq>
 8000f70:	bf94      	ite	ls
 8000f72:	2001      	movls	r0, #1
 8000f74:	2000      	movhi	r0, #0
 8000f76:	f85d fb08 	ldr.w	pc, [sp], #8
 8000f7a:	bf00      	nop

08000f7c <__aeabi_fcmpge>:
 8000f7c:	f84d ed08 	str.w	lr, [sp, #-8]!
 8000f80:	f7ff ffd2 	bl	8000f28 <__aeabi_cfrcmple>
 8000f84:	bf94      	ite	ls
 8000f86:	2001      	movls	r0, #1
 8000f88:	2000      	movhi	r0, #0
 8000f8a:	f85d fb08 	ldr.w	pc, [sp], #8
 8000f8e:	bf00      	nop

08000f90 <__aeabi_fcmpgt>:
 8000f90:	f84d ed08 	str.w	lr, [sp, #-8]!
 8000f94:	f7ff ffc8 	bl	8000f28 <__aeabi_cfrcmple>
 8000f98:	bf34      	ite	cc
 8000f9a:	2001      	movcc	r0, #1
 8000f9c:	2000      	movcs	r0, #0
 8000f9e:	f85d fb08 	ldr.w	pc, [sp], #8
 8000fa2:	bf00      	nop

08000fa4 <__aeabi_f2iz>:
 8000fa4:	ea4f 0240 	mov.w	r2, r0, lsl #1
 8000fa8:	f1b2 4ffe 	cmp.w	r2, #2130706432	; 0x7f000000
 8000fac:	d30f      	bcc.n	8000fce <__aeabi_f2iz+0x2a>
 8000fae:	f04f 039e 	mov.w	r3, #158	; 0x9e
 8000fb2:	ebb3 6212 	subs.w	r2, r3, r2, lsr #24
 8000fb6:	d90d      	bls.n	8000fd4 <__aeabi_f2iz+0x30>
 8000fb8:	ea4f 2300 	mov.w	r3, r0, lsl #8
 8000fbc:	f043 4300 	orr.w	r3, r3, #2147483648	; 0x80000000
 8000fc0:	f010 4f00 	tst.w	r0, #2147483648	; 0x80000000
 8000fc4:	fa23 f002 	lsr.w	r0, r3, r2
 8000fc8:	bf18      	it	ne
 8000fca:	4240      	negne	r0, r0
 8000fcc:	4770      	bx	lr
 8000fce:	f04f 0000 	mov.w	r0, #0
 8000fd2:	4770      	bx	lr
 8000fd4:	f112 0f61 	cmn.w	r2, #97	; 0x61
 8000fd8:	d101      	bne.n	8000fde <__aeabi_f2iz+0x3a>
 8000fda:	0242      	lsls	r2, r0, #9
 8000fdc:	d105      	bne.n	8000fea <__aeabi_f2iz+0x46>
 8000fde:	f010 4000 	ands.w	r0, r0, #2147483648	; 0x80000000
 8000fe2:	bf08      	it	eq
 8000fe4:	f06f 4000 	mvneq.w	r0, #2147483648	; 0x80000000
 8000fe8:	4770      	bx	lr
 8000fea:	f04f 0000 	mov.w	r0, #0
 8000fee:	4770      	bx	lr

08000ff0 <__aeabi_f2uiz>:
 8000ff0:	0042      	lsls	r2, r0, #1
 8000ff2:	d20e      	bcs.n	8001012 <__aeabi_f2uiz+0x22>
 8000ff4:	f1b2 4ffe 	cmp.w	r2, #2130706432	; 0x7f000000
 8000ff8:	d30b      	bcc.n	8001012 <__aeabi_f2uiz+0x22>
 8000ffa:	f04f 039e 	mov.w	r3, #158	; 0x9e
 8000ffe:	ebb3 6212 	subs.w	r2, r3, r2, lsr #24
 8001002:	d409      	bmi.n	8001018 <__aeabi_f2uiz+0x28>
 8001004:	ea4f 2300 	mov.w	r3, r0, lsl #8
 8001008:	f043 4300 	orr.w	r3, r3, #2147483648	; 0x80000000
 800100c:	fa23 f002 	lsr.w	r0, r3, r2
 8001010:	4770      	bx	lr
 8001012:	f04f 0000 	mov.w	r0, #0
 8001016:	4770      	bx	lr
 8001018:	f112 0f61 	cmn.w	r2, #97	; 0x61
 800101c:	d101      	bne.n	8001022 <__aeabi_f2uiz+0x32>
 800101e:	0242      	lsls	r2, r0, #9
 8001020:	d102      	bne.n	8001028 <__aeabi_f2uiz+0x38>
 8001022:	f04f 30ff 	mov.w	r0, #4294967295	; 0xffffffff
 8001026:	4770      	bx	lr
 8001028:	f04f 0000 	mov.w	r0, #0
 800102c:	4770      	bx	lr
 800102e:	bf00      	nop

08001030 <TIM1_UP_IRQHandler>:
/**************************************************************************
Function: all the control codes are in it.
5ms timing interrupt controlled by TIM1
**************************************************************************/
int TIM1_UP_IRQHandler(void)  
{    
 8001030:	b580      	push	{r7, lr}
 8001032:	af00      	add	r7, sp, #0
	if(TIM1->SR&0X0001)//5ms timing interrupt
 8001034:	4b39      	ldr	r3, [pc, #228]	; (800111c <TIM1_UP_IRQHandler+0xec>)
 8001036:	8a1b      	ldrh	r3, [r3, #16]
 8001038:	b29b      	uxth	r3, r3
 800103a:	f003 0301 	and.w	r3, r3, #1
 800103e:	2b00      	cmp	r3, #0
 8001040:	d069      	beq.n	8001116 <TIM1_UP_IRQHandler+0xe6>
	{   
		  TIM1->SR&=~(1<<0);                                       //===Clear timer 1 interrupt flag bit                    
 8001042:	4b36      	ldr	r3, [pc, #216]	; (800111c <TIM1_UP_IRQHandler+0xec>)
 8001044:	8a1b      	ldrh	r3, [r3, #16]
 8001046:	b29b      	uxth	r3, r3
 8001048:	4a34      	ldr	r2, [pc, #208]	; (800111c <TIM1_UP_IRQHandler+0xec>)
 800104a:	f023 0301 	bic.w	r3, r3, #1
 800104e:	b29b      	uxth	r3, r3
 8001050:	8213      	strh	r3, [r2, #16]
	     if(delay_flag==1)
 8001052:	4b33      	ldr	r3, [pc, #204]	; (8001120 <TIM1_UP_IRQHandler+0xf0>)
 8001054:	781b      	ldrb	r3, [r3, #0]
 8001056:	2b01      	cmp	r3, #1
 8001058:	d10f      	bne.n	800107a <TIM1_UP_IRQHandler+0x4a>
			 {
				 if(++delay_50==10)	 delay_50=0,delay_flag=0;          //===Provide 50ms precise delay for main function.
 800105a:	4b32      	ldr	r3, [pc, #200]	; (8001124 <TIM1_UP_IRQHandler+0xf4>)
 800105c:	781b      	ldrb	r3, [r3, #0]
 800105e:	3301      	adds	r3, #1
 8001060:	b2da      	uxtb	r2, r3
 8001062:	4b30      	ldr	r3, [pc, #192]	; (8001124 <TIM1_UP_IRQHandler+0xf4>)
 8001064:	701a      	strb	r2, [r3, #0]
 8001066:	4b2f      	ldr	r3, [pc, #188]	; (8001124 <TIM1_UP_IRQHandler+0xf4>)
 8001068:	781b      	ldrb	r3, [r3, #0]
 800106a:	2b0a      	cmp	r3, #10
 800106c:	d105      	bne.n	800107a <TIM1_UP_IRQHandler+0x4a>
 800106e:	4b2d      	ldr	r3, [pc, #180]	; (8001124 <TIM1_UP_IRQHandler+0xf4>)
 8001070:	2200      	movs	r2, #0
 8001072:	701a      	strb	r2, [r3, #0]
 8001074:	4b2a      	ldr	r3, [pc, #168]	; (8001120 <TIM1_UP_IRQHandler+0xf0>)
 8001076:	2200      	movs	r2, #0
 8001078:	701a      	strb	r2, [r3, #0]
			 }		
    	Encoder=Read_Encoder(4);             	                   //===Update encoder location information
 800107a:	2004      	movs	r0, #4
 800107c:	f001 f876 	bl	800216c <Read_Encoder>
 8001080:	4603      	mov	r3, r0
 8001082:	4a29      	ldr	r2, [pc, #164]	; (8001128 <TIM1_UP_IRQHandler+0xf8>)
 8001084:	6013      	str	r3, [r2, #0]
      Angle_Balance=Get_Adc_Average(3,15);                     //===Postures	
 8001086:	210f      	movs	r1, #15
 8001088:	2003      	movs	r0, #3
 800108a:	f000 ffb9 	bl	8002000 <Get_Adc_Average>
 800108e:	4603      	mov	r3, r0
 8001090:	4618      	mov	r0, r3
 8001092:	f7ff fd69 	bl	8000b68 <__aeabi_ui2f>
 8001096:	4603      	mov	r3, r0
 8001098:	4a24      	ldr	r2, [pc, #144]	; (800112c <TIM1_UP_IRQHandler+0xfc>)
 800109a:	6013      	str	r3, [r2, #0]
     	Balance_Pwm =balance(Angle_Balance);                                          //===Angle PD control	
 800109c:	4b23      	ldr	r3, [pc, #140]	; (800112c <TIM1_UP_IRQHandler+0xfc>)
 800109e:	681b      	ldr	r3, [r3, #0]
 80010a0:	4618      	mov	r0, r3
 80010a2:	f000 f84f 	bl	8001144 <balance>
 80010a6:	4603      	mov	r3, r0
 80010a8:	4a21      	ldr	r2, [pc, #132]	; (8001130 <TIM1_UP_IRQHandler+0x100>)
 80010aa:	6013      	str	r3, [r2, #0]
	    if(++Position_Target>4)	Position_Pwm=Position(Encoder),Position_Target=0;     //===Position PD control 25ms for one position control
 80010ac:	4b21      	ldr	r3, [pc, #132]	; (8001134 <TIM1_UP_IRQHandler+0x104>)
 80010ae:	781b      	ldrb	r3, [r3, #0]
 80010b0:	3301      	adds	r3, #1
 80010b2:	b2da      	uxtb	r2, r3
 80010b4:	4b1f      	ldr	r3, [pc, #124]	; (8001134 <TIM1_UP_IRQHandler+0x104>)
 80010b6:	701a      	strb	r2, [r3, #0]
 80010b8:	4b1e      	ldr	r3, [pc, #120]	; (8001134 <TIM1_UP_IRQHandler+0x104>)
 80010ba:	781b      	ldrb	r3, [r3, #0]
 80010bc:	2b04      	cmp	r3, #4
 80010be:	d90a      	bls.n	80010d6 <TIM1_UP_IRQHandler+0xa6>
 80010c0:	4b19      	ldr	r3, [pc, #100]	; (8001128 <TIM1_UP_IRQHandler+0xf8>)
 80010c2:	681b      	ldr	r3, [r3, #0]
 80010c4:	4618      	mov	r0, r3
 80010c6:	f000 f883 	bl	80011d0 <Position>
 80010ca:	4603      	mov	r3, r0
 80010cc:	4a1a      	ldr	r2, [pc, #104]	; (8001138 <TIM1_UP_IRQHandler+0x108>)
 80010ce:	6013      	str	r3, [r2, #0]
 80010d0:	4b18      	ldr	r3, [pc, #96]	; (8001134 <TIM1_UP_IRQHandler+0x104>)
 80010d2:	2200      	movs	r2, #0
 80010d4:	701a      	strb	r2, [r3, #0]
      Moto=Balance_Pwm-Position_Pwm;        //===Calculate final motor PWM
 80010d6:	4b16      	ldr	r3, [pc, #88]	; (8001130 <TIM1_UP_IRQHandler+0x100>)
 80010d8:	681a      	ldr	r2, [r3, #0]
 80010da:	4b17      	ldr	r3, [pc, #92]	; (8001138 <TIM1_UP_IRQHandler+0x108>)
 80010dc:	681b      	ldr	r3, [r3, #0]
 80010de:	1ad3      	subs	r3, r2, r3
 80010e0:	4a16      	ldr	r2, [pc, #88]	; (800113c <TIM1_UP_IRQHandler+0x10c>)
 80010e2:	6013      	str	r3, [r2, #0]
		  Xianfu_Pwm();                         //===PWM limiting, anyway, the system instability caused by duty ratio 100%.
 80010e4:	f000 f92a 	bl	800133c <Xianfu_Pwm>
		  if(Turn_Off(Voltage)==0)              //===Low pressure and excessive inclination protection
 80010e8:	4b15      	ldr	r3, [pc, #84]	; (8001140 <TIM1_UP_IRQHandler+0x110>)
 80010ea:	681b      	ldr	r3, [r3, #0]
 80010ec:	4618      	mov	r0, r3
 80010ee:	f000 f99f 	bl	8001430 <Turn_Off>
 80010f2:	4603      	mov	r3, r0
 80010f4:	2b00      	cmp	r3, #0
 80010f6:	d104      	bne.n	8001102 <TIM1_UP_IRQHandler+0xd2>
			Set_Pwm(Moto);                        //===Assign to PWM register
 80010f8:	4b10      	ldr	r3, [pc, #64]	; (800113c <TIM1_UP_IRQHandler+0x10c>)
 80010fa:	681b      	ldr	r3, [r3, #0]
 80010fc:	4618      	mov	r0, r3
 80010fe:	f000 f8f7 	bl	80012f0 <Set_Pwm>
	  	Led_Flash(100);                       //===LED flicker indicates normal operation of the system. 
 8001102:	2064      	movs	r0, #100	; 0x64
 8001104:	f001 faf6 	bl	80026f4 <Led_Flash>
	    Voltage=Get_battery_volt();           //===Get battery voltage	      
 8001108:	f000 fe9a 	bl	8001e40 <Get_battery_volt>
 800110c:	4603      	mov	r3, r0
 800110e:	4a0c      	ldr	r2, [pc, #48]	; (8001140 <TIM1_UP_IRQHandler+0x110>)
 8001110:	6013      	str	r3, [r2, #0]
			Key();                                //===Scan button changes
 8001112:	f000 f933 	bl	800137c <Key>
	}       	
	 return 0;	  
 8001116:	2300      	movs	r3, #0
} 
 8001118:	4618      	mov	r0, r3
 800111a:	bd80      	pop	{r7, pc}
 800111c:	40012c00 	.word	0x40012c00
 8001120:	200004c4 	.word	0x200004c4
 8001124:	200004c5 	.word	0x200004c5
 8001128:	200004cc 	.word	0x200004cc
 800112c:	200004d4 	.word	0x200004d4
 8001130:	200000b8 	.word	0x200000b8
 8001134:	200000b0 	.word	0x200000b0
 8001138:	200000b4 	.word	0x200000b4
 800113c:	200004d0 	.word	0x200004d0
 8001140:	200004c8 	.word	0x200004c8

08001144 <balance>:
Function: tilt PD control
Entry parameters: angle
Return value: tilt control PWM
**************************************************************************/
int balance(float Angle)
{  
 8001144:	b590      	push	{r4, r7, lr}
 8001146:	b085      	sub	sp, #20
 8001148:	af00      	add	r7, sp, #0
 800114a:	6078      	str	r0, [r7, #4]
   float Bias;                       //Inclination deviation
	 static float Last_Bias,D_Bias;    //PID dependent variables
	 int balance;                      //PWM return value 
	 Bias=Angle-ZHONGZHI;              //Find out the angle of equilibrium and mechanical correlation.
 800114c:	491a      	ldr	r1, [pc, #104]	; (80011b8 <balance+0x74>)
 800114e:	6878      	ldr	r0, [r7, #4]
 8001150:	f7ff fc58 	bl	8000a04 <__aeabi_fsub>
 8001154:	4603      	mov	r3, r0
 8001156:	60fb      	str	r3, [r7, #12]
	 D_Bias=Bias-Last_Bias;            //Differential control is used to derive deviations.
 8001158:	4b18      	ldr	r3, [pc, #96]	; (80011bc <balance+0x78>)
 800115a:	681b      	ldr	r3, [r3, #0]
 800115c:	4619      	mov	r1, r3
 800115e:	68f8      	ldr	r0, [r7, #12]
 8001160:	f7ff fc50 	bl	8000a04 <__aeabi_fsub>
 8001164:	4603      	mov	r3, r0
 8001166:	461a      	mov	r2, r3
 8001168:	4b15      	ldr	r3, [pc, #84]	; (80011c0 <balance+0x7c>)
 800116a:	601a      	str	r2, [r3, #0]
	 balance=-Balance_KP*Bias-D_Bias*Balance_KD;   //===Motor PWM PD control for tilt angle control
 800116c:	4b15      	ldr	r3, [pc, #84]	; (80011c4 <balance+0x80>)
 800116e:	681b      	ldr	r3, [r3, #0]
 8001170:	f083 4300 	eor.w	r3, r3, #2147483648	; 0x80000000
 8001174:	68f9      	ldr	r1, [r7, #12]
 8001176:	4618      	mov	r0, r3
 8001178:	f7ff fd4e 	bl	8000c18 <__aeabi_fmul>
 800117c:	4603      	mov	r3, r0
 800117e:	461c      	mov	r4, r3
 8001180:	4b0f      	ldr	r3, [pc, #60]	; (80011c0 <balance+0x7c>)
 8001182:	681b      	ldr	r3, [r3, #0]
 8001184:	4a10      	ldr	r2, [pc, #64]	; (80011c8 <balance+0x84>)
 8001186:	6812      	ldr	r2, [r2, #0]
 8001188:	4611      	mov	r1, r2
 800118a:	4618      	mov	r0, r3
 800118c:	f7ff fd44 	bl	8000c18 <__aeabi_fmul>
 8001190:	4603      	mov	r3, r0
 8001192:	4619      	mov	r1, r3
 8001194:	4620      	mov	r0, r4
 8001196:	f7ff fc35 	bl	8000a04 <__aeabi_fsub>
 800119a:	4603      	mov	r3, r0
 800119c:	4618      	mov	r0, r3
 800119e:	f7ff ff01 	bl	8000fa4 <__aeabi_f2iz>
 80011a2:	4603      	mov	r3, r0
 80011a4:	60bb      	str	r3, [r7, #8]
   Last_Bias=Bias;                   //Keep the last deviation.
 80011a6:	4a05      	ldr	r2, [pc, #20]	; (80011bc <balance+0x78>)
 80011a8:	68fb      	ldr	r3, [r7, #12]
 80011aa:	6013      	str	r3, [r2, #0]
	 return balance;
 80011ac:	68bb      	ldr	r3, [r7, #8]
}
 80011ae:	4618      	mov	r0, r3
 80011b0:	3714      	adds	r7, #20
 80011b2:	46bd      	mov	sp, r7
 80011b4:	bd90      	pop	{r4, r7, pc}
 80011b6:	bf00      	nop
 80011b8:	45426000 	.word	0x45426000
 80011bc:	20000048 	.word	0x20000048
 80011c0:	2000004c 	.word	0x2000004c
 80011c4:	20000008 	.word	0x20000008
 80011c8:	2000000c 	.word	0x2000000c
 80011cc:	00000000 	.word	0x00000000

080011d0 <Position>:
Function: position PD control
Entry parameters: encoder
Return value: position control PWM
**************************************************************************/
int Position(int Encoder)
{  
 80011d0:	b5b0      	push	{r4, r5, r7, lr}
 80011d2:	b082      	sub	sp, #8
 80011d4:	af00      	add	r7, sp, #0
 80011d6:	6078      	str	r0, [r7, #4]
   static float Position_PWM,Last_Position,Position_Bias,Position_Differential;
	 static float Position_Least;
  	Position_Least =Encoder-Position_Zero;             //===
 80011d8:	4b3d      	ldr	r3, [pc, #244]	; (80012d0 <Position+0x100>)
 80011da:	681b      	ldr	r3, [r3, #0]
 80011dc:	687a      	ldr	r2, [r7, #4]
 80011de:	1ad3      	subs	r3, r2, r3
 80011e0:	4618      	mov	r0, r3
 80011e2:	f7ff fcc5 	bl	8000b70 <__aeabi_i2f>
 80011e6:	4603      	mov	r3, r0
 80011e8:	4a3a      	ldr	r2, [pc, #232]	; (80012d4 <Position+0x104>)
 80011ea:	6013      	str	r3, [r2, #0]
    Position_Bias *=0.8;		   
 80011ec:	4b3a      	ldr	r3, [pc, #232]	; (80012d8 <Position+0x108>)
 80011ee:	681b      	ldr	r3, [r3, #0]
 80011f0:	4618      	mov	r0, r3
 80011f2:	f7ff f921 	bl	8000438 <__aeabi_f2d>
 80011f6:	a332      	add	r3, pc, #200	; (adr r3, 80012c0 <Position+0xf0>)
 80011f8:	e9d3 2300 	ldrd	r2, r3, [r3]
 80011fc:	f7ff f974 	bl	80004e8 <__aeabi_dmul>
 8001200:	4602      	mov	r2, r0
 8001202:	460b      	mov	r3, r1
 8001204:	4610      	mov	r0, r2
 8001206:	4619      	mov	r1, r3
 8001208:	f7ff fba8 	bl	800095c <__aeabi_d2f>
 800120c:	4603      	mov	r3, r0
 800120e:	4a32      	ldr	r2, [pc, #200]	; (80012d8 <Position+0x108>)
 8001210:	6013      	str	r3, [r2, #0]
    Position_Bias += Position_Least*0.2;	             //===First order low pass filter 
 8001212:	4b31      	ldr	r3, [pc, #196]	; (80012d8 <Position+0x108>)
 8001214:	681b      	ldr	r3, [r3, #0]
 8001216:	4618      	mov	r0, r3
 8001218:	f7ff f90e 	bl	8000438 <__aeabi_f2d>
 800121c:	4604      	mov	r4, r0
 800121e:	460d      	mov	r5, r1
 8001220:	4b2c      	ldr	r3, [pc, #176]	; (80012d4 <Position+0x104>)
 8001222:	681b      	ldr	r3, [r3, #0]
 8001224:	4618      	mov	r0, r3
 8001226:	f7ff f907 	bl	8000438 <__aeabi_f2d>
 800122a:	a327      	add	r3, pc, #156	; (adr r3, 80012c8 <Position+0xf8>)
 800122c:	e9d3 2300 	ldrd	r2, r3, [r3]
 8001230:	f7ff f95a 	bl	80004e8 <__aeabi_dmul>
 8001234:	4602      	mov	r2, r0
 8001236:	460b      	mov	r3, r1
 8001238:	4620      	mov	r0, r4
 800123a:	4629      	mov	r1, r5
 800123c:	f7fe ff9e 	bl	800017c <__adddf3>
 8001240:	4602      	mov	r2, r0
 8001242:	460b      	mov	r3, r1
 8001244:	4610      	mov	r0, r2
 8001246:	4619      	mov	r1, r3
 8001248:	f7ff fb88 	bl	800095c <__aeabi_d2f>
 800124c:	4603      	mov	r3, r0
 800124e:	4a22      	ldr	r2, [pc, #136]	; (80012d8 <Position+0x108>)
 8001250:	6013      	str	r3, [r2, #0]
	  Position_Differential=Position_Bias-Last_Position;
 8001252:	4b21      	ldr	r3, [pc, #132]	; (80012d8 <Position+0x108>)
 8001254:	681b      	ldr	r3, [r3, #0]
 8001256:	4a21      	ldr	r2, [pc, #132]	; (80012dc <Position+0x10c>)
 8001258:	6812      	ldr	r2, [r2, #0]
 800125a:	4611      	mov	r1, r2
 800125c:	4618      	mov	r0, r3
 800125e:	f7ff fbd1 	bl	8000a04 <__aeabi_fsub>
 8001262:	4603      	mov	r3, r0
 8001264:	461a      	mov	r2, r3
 8001266:	4b1e      	ldr	r3, [pc, #120]	; (80012e0 <Position+0x110>)
 8001268:	601a      	str	r2, [r3, #0]
	  Last_Position=Position_Bias;
 800126a:	4b1b      	ldr	r3, [pc, #108]	; (80012d8 <Position+0x108>)
 800126c:	681b      	ldr	r3, [r3, #0]
 800126e:	4a1b      	ldr	r2, [pc, #108]	; (80012dc <Position+0x10c>)
 8001270:	6013      	str	r3, [r2, #0]
		Position_PWM=Position_Bias*Position_KP+Position_Differential*Position_KD; //= = speed control	
 8001272:	4b19      	ldr	r3, [pc, #100]	; (80012d8 <Position+0x108>)
 8001274:	681b      	ldr	r3, [r3, #0]
 8001276:	4a1b      	ldr	r2, [pc, #108]	; (80012e4 <Position+0x114>)
 8001278:	6812      	ldr	r2, [r2, #0]
 800127a:	4611      	mov	r1, r2
 800127c:	4618      	mov	r0, r3
 800127e:	f7ff fccb 	bl	8000c18 <__aeabi_fmul>
 8001282:	4603      	mov	r3, r0
 8001284:	461c      	mov	r4, r3
 8001286:	4b16      	ldr	r3, [pc, #88]	; (80012e0 <Position+0x110>)
 8001288:	681b      	ldr	r3, [r3, #0]
 800128a:	4a17      	ldr	r2, [pc, #92]	; (80012e8 <Position+0x118>)
 800128c:	6812      	ldr	r2, [r2, #0]
 800128e:	4611      	mov	r1, r2
 8001290:	4618      	mov	r0, r3
 8001292:	f7ff fcc1 	bl	8000c18 <__aeabi_fmul>
 8001296:	4603      	mov	r3, r0
 8001298:	4619      	mov	r1, r3
 800129a:	4620      	mov	r0, r4
 800129c:	f7ff fbb4 	bl	8000a08 <__addsf3>
 80012a0:	4603      	mov	r3, r0
 80012a2:	461a      	mov	r2, r3
 80012a4:	4b11      	ldr	r3, [pc, #68]	; (80012ec <Position+0x11c>)
 80012a6:	601a      	str	r2, [r3, #0]
	  return Position_PWM;
 80012a8:	4b10      	ldr	r3, [pc, #64]	; (80012ec <Position+0x11c>)
 80012aa:	681b      	ldr	r3, [r3, #0]
 80012ac:	4618      	mov	r0, r3
 80012ae:	f7ff fe79 	bl	8000fa4 <__aeabi_f2iz>
 80012b2:	4603      	mov	r3, r0
}
 80012b4:	4618      	mov	r0, r3
 80012b6:	3708      	adds	r7, #8
 80012b8:	46bd      	mov	sp, r7
 80012ba:	bdb0      	pop	{r4, r5, r7, pc}
 80012bc:	f3af 8000 	nop.w
 80012c0:	9999999a 	.word	0x9999999a
 80012c4:	3fe99999 	.word	0x3fe99999
 80012c8:	9999999a 	.word	0x9999999a
 80012cc:	3fc99999 	.word	0x3fc99999
 80012d0:	20000004 	.word	0x20000004
 80012d4:	20000050 	.word	0x20000050
 80012d8:	20000054 	.word	0x20000054
 80012dc:	20000058 	.word	0x20000058
 80012e0:	2000005c 	.word	0x2000005c
 80012e4:	20000010 	.word	0x20000010
 80012e8:	20000014 	.word	0x20000014
 80012ec:	20000060 	.word	0x20000060

080012f0 <Set_Pwm>:
Function: assign to PWM register
Entry parameter: PWM
Return value: None
**************************************************************************/
void Set_Pwm(int moto)
{
 80012f0:	b580      	push	{r7, lr}
 80012f2:	b082      	sub	sp, #8
 80012f4:	af00      	add	r7, sp, #0
 80012f6:	6078      	str	r0, [r7, #4]
    	if(moto<0)			AIN2=1,			AIN1=0;
 80012f8:	687b      	ldr	r3, [r7, #4]
 80012fa:	2b00      	cmp	r3, #0
 80012fc:	da06      	bge.n	800130c <Set_Pwm+0x1c>
 80012fe:	4b0c      	ldr	r3, [pc, #48]	; (8001330 <Set_Pwm+0x40>)
 8001300:	2201      	movs	r2, #1
 8001302:	601a      	str	r2, [r3, #0]
 8001304:	4b0b      	ldr	r3, [pc, #44]	; (8001334 <Set_Pwm+0x44>)
 8001306:	2200      	movs	r2, #0
 8001308:	601a      	str	r2, [r3, #0]
 800130a:	e005      	b.n	8001318 <Set_Pwm+0x28>
			else 	          AIN2=0,			AIN1=1;
 800130c:	4b08      	ldr	r3, [pc, #32]	; (8001330 <Set_Pwm+0x40>)
 800130e:	2200      	movs	r2, #0
 8001310:	601a      	str	r2, [r3, #0]
 8001312:	4b08      	ldr	r3, [pc, #32]	; (8001334 <Set_Pwm+0x44>)
 8001314:	2201      	movs	r2, #1
 8001316:	601a      	str	r2, [r3, #0]
			PWMA=myabs(moto);
 8001318:	6878      	ldr	r0, [r7, #4]
 800131a:	f000 f8dd 	bl	80014d8 <myabs>
 800131e:	4602      	mov	r2, r0
 8001320:	4b05      	ldr	r3, [pc, #20]	; (8001338 <Set_Pwm+0x48>)
 8001322:	b292      	uxth	r2, r2
 8001324:	f8a3 2040 	strh.w	r2, [r3, #64]	; 0x40
}
 8001328:	bf00      	nop
 800132a:	3708      	adds	r7, #8
 800132c:	46bd      	mov	sp, r7
 800132e:	bd80      	pop	{r7, pc}
 8001330:	422181b0 	.word	0x422181b0
 8001334:	422181b4 	.word	0x422181b4
 8001338:	40000400 	.word	0x40000400

0800133c <Xianfu_Pwm>:
Function: restrict PWM assignment
Entry parameters: None
Return value: None
**************************************************************************/
void Xianfu_Pwm(void)
{	
 800133c:	b480      	push	{r7}
 800133e:	b083      	sub	sp, #12
 8001340:	af00      	add	r7, sp, #0
	  int Amplitude=6900;    //===PWM is full with a 7200 limit of 6900.
 8001342:	f641 23f4 	movw	r3, #6900	; 0x1af4
 8001346:	607b      	str	r3, [r7, #4]
	  if(Moto<-Amplitude) Moto=-Amplitude;	
 8001348:	687b      	ldr	r3, [r7, #4]
 800134a:	425a      	negs	r2, r3
 800134c:	4b0a      	ldr	r3, [pc, #40]	; (8001378 <Xianfu_Pwm+0x3c>)
 800134e:	681b      	ldr	r3, [r3, #0]
 8001350:	429a      	cmp	r2, r3
 8001352:	dd03      	ble.n	800135c <Xianfu_Pwm+0x20>
 8001354:	687b      	ldr	r3, [r7, #4]
 8001356:	425b      	negs	r3, r3
 8001358:	4a07      	ldr	r2, [pc, #28]	; (8001378 <Xianfu_Pwm+0x3c>)
 800135a:	6013      	str	r3, [r2, #0]
		if(Moto>Amplitude)  Moto=Amplitude;		
 800135c:	4b06      	ldr	r3, [pc, #24]	; (8001378 <Xianfu_Pwm+0x3c>)
 800135e:	681b      	ldr	r3, [r3, #0]
 8001360:	687a      	ldr	r2, [r7, #4]
 8001362:	429a      	cmp	r2, r3
 8001364:	da02      	bge.n	800136c <Xianfu_Pwm+0x30>
 8001366:	4a04      	ldr	r2, [pc, #16]	; (8001378 <Xianfu_Pwm+0x3c>)
 8001368:	687b      	ldr	r3, [r7, #4]
 800136a:	6013      	str	r3, [r2, #0]
}
 800136c:	bf00      	nop
 800136e:	370c      	adds	r7, #12
 8001370:	46bd      	mov	sp, r7
 8001372:	bc80      	pop	{r7}
 8001374:	4770      	bx	lr
 8001376:	bf00      	nop
 8001378:	200004d0 	.word	0x200004d0

0800137c <Key>:
Function: key to modify the running state of the car and control the position of the swing rod.
Entry parameters: None
Return value: None
**************************************************************************/
void Key(void)
{	
 800137c:	b580      	push	{r7, lr}
 800137e:	b082      	sub	sp, #8
 8001380:	af00      	add	r7, sp, #0
	int Position=1040; //The original position of the target position motor is 10000 turns a circle is 1040 and encoder precision is related, the default is that the motor rotates a circle, output 1040 jump edges
 8001382:	f44f 6382 	mov.w	r3, #1040	; 0x410
 8001386:	607b      	str	r3, [r7, #4]
	static int tmp,flag,count;
	tmp=click_N_Double(100); 
 8001388:	2064      	movs	r0, #100	; 0x64
 800138a:	f001 f90f 	bl	80025ac <click_N_Double>
 800138e:	4603      	mov	r3, r0
 8001390:	461a      	mov	r2, r3
 8001392:	4b23      	ldr	r3, [pc, #140]	; (8001420 <Key+0xa4>)
 8001394:	601a      	str	r2, [r3, #0]
	
	if(tmp==1)flag=1;//++
 8001396:	4b22      	ldr	r3, [pc, #136]	; (8001420 <Key+0xa4>)
 8001398:	681b      	ldr	r3, [r3, #0]
 800139a:	2b01      	cmp	r3, #1
 800139c:	d102      	bne.n	80013a4 <Key+0x28>
 800139e:	4b21      	ldr	r3, [pc, #132]	; (8001424 <Key+0xa8>)
 80013a0:	2201      	movs	r2, #1
 80013a2:	601a      	str	r2, [r3, #0]
  if(tmp==2)flag=2;//--
 80013a4:	4b1e      	ldr	r3, [pc, #120]	; (8001420 <Key+0xa4>)
 80013a6:	681b      	ldr	r3, [r3, #0]
 80013a8:	2b02      	cmp	r3, #2
 80013aa:	d102      	bne.n	80013b2 <Key+0x36>
 80013ac:	4b1d      	ldr	r3, [pc, #116]	; (8001424 <Key+0xa8>)
 80013ae:	2202      	movs	r2, #2
 80013b0:	601a      	str	r2, [r3, #0]
	
	if(flag==1) //Clockwise movement of swing rod
 80013b2:	4b1c      	ldr	r3, [pc, #112]	; (8001424 <Key+0xa8>)
 80013b4:	681b      	ldr	r3, [r3, #0]
 80013b6:	2b01      	cmp	r3, #1
 80013b8:	d114      	bne.n	80013e4 <Key+0x68>
	{
		Position_Zero+=4;
 80013ba:	4b1b      	ldr	r3, [pc, #108]	; (8001428 <Key+0xac>)
 80013bc:	681b      	ldr	r3, [r3, #0]
 80013be:	3304      	adds	r3, #4
 80013c0:	4a19      	ldr	r2, [pc, #100]	; (8001428 <Key+0xac>)
 80013c2:	6013      	str	r3, [r2, #0]
		count+=4;	
 80013c4:	4b19      	ldr	r3, [pc, #100]	; (800142c <Key+0xb0>)
 80013c6:	681b      	ldr	r3, [r3, #0]
 80013c8:	3304      	adds	r3, #4
 80013ca:	4a18      	ldr	r2, [pc, #96]	; (800142c <Key+0xb0>)
 80013cc:	6013      	str	r3, [r2, #0]
		if(count==Position) 	flag=0,count=0;
 80013ce:	4b17      	ldr	r3, [pc, #92]	; (800142c <Key+0xb0>)
 80013d0:	681b      	ldr	r3, [r3, #0]
 80013d2:	687a      	ldr	r2, [r7, #4]
 80013d4:	429a      	cmp	r2, r3
 80013d6:	d105      	bne.n	80013e4 <Key+0x68>
 80013d8:	4b12      	ldr	r3, [pc, #72]	; (8001424 <Key+0xa8>)
 80013da:	2200      	movs	r2, #0
 80013dc:	601a      	str	r2, [r3, #0]
 80013de:	4b13      	ldr	r3, [pc, #76]	; (800142c <Key+0xb0>)
 80013e0:	2200      	movs	r2, #0
 80013e2:	601a      	str	r2, [r3, #0]
	}	
		if(flag==2) //Counter clockwise movement of swing rod
 80013e4:	4b0f      	ldr	r3, [pc, #60]	; (8001424 <Key+0xa8>)
 80013e6:	681b      	ldr	r3, [r3, #0]
 80013e8:	2b02      	cmp	r3, #2
 80013ea:	d114      	bne.n	8001416 <Key+0x9a>
	{
		Position_Zero-=4;
 80013ec:	4b0e      	ldr	r3, [pc, #56]	; (8001428 <Key+0xac>)
 80013ee:	681b      	ldr	r3, [r3, #0]
 80013f0:	3b04      	subs	r3, #4
 80013f2:	4a0d      	ldr	r2, [pc, #52]	; (8001428 <Key+0xac>)
 80013f4:	6013      	str	r3, [r2, #0]
		count+=4;	
 80013f6:	4b0d      	ldr	r3, [pc, #52]	; (800142c <Key+0xb0>)
 80013f8:	681b      	ldr	r3, [r3, #0]
 80013fa:	3304      	adds	r3, #4
 80013fc:	4a0b      	ldr	r2, [pc, #44]	; (800142c <Key+0xb0>)
 80013fe:	6013      	str	r3, [r2, #0]
		if(count==Position) 	flag=0,count=0;
 8001400:	4b0a      	ldr	r3, [pc, #40]	; (800142c <Key+0xb0>)
 8001402:	681b      	ldr	r3, [r3, #0]
 8001404:	687a      	ldr	r2, [r7, #4]
 8001406:	429a      	cmp	r2, r3
 8001408:	d105      	bne.n	8001416 <Key+0x9a>
 800140a:	4b06      	ldr	r3, [pc, #24]	; (8001424 <Key+0xa8>)
 800140c:	2200      	movs	r2, #0
 800140e:	601a      	str	r2, [r3, #0]
 8001410:	4b06      	ldr	r3, [pc, #24]	; (800142c <Key+0xb0>)
 8001412:	2200      	movs	r2, #0
 8001414:	601a      	str	r2, [r3, #0]
	}
}
 8001416:	bf00      	nop
 8001418:	3708      	adds	r7, #8
 800141a:	46bd      	mov	sp, r7
 800141c:	bd80      	pop	{r7, pc}
 800141e:	bf00      	nop
 8001420:	20000064 	.word	0x20000064
 8001424:	20000068 	.word	0x20000068
 8001428:	20000004 	.word	0x20000004
 800142c:	2000006c 	.word	0x2000006c

08001430 <Turn_Off>:
Function of function: abnormal closing motor
Inlet parameters: voltage
Return value: 1: abnormal 0: normal
**************************************************************************/
u8 Turn_Off(int voltage)
{
 8001430:	b580      	push	{r7, lr}
 8001432:	b084      	sub	sp, #16
 8001434:	af00      	add	r7, sp, #0
 8001436:	6078      	str	r0, [r7, #4]
	    u8 temp; 
	    static u8 count;
			if(1==Flag_Stop) //The battery voltage is too low, turn off the motor.
 8001438:	4b20      	ldr	r3, [pc, #128]	; (80014bc <Turn_Off+0x8c>)
 800143a:	781b      	ldrb	r3, [r3, #0]
 800143c:	2b01      	cmp	r3, #1
 800143e:	d10b      	bne.n	8001458 <Turn_Off+0x28>
			{	      
      Flag_Stop=1;				
 8001440:	4b1e      	ldr	r3, [pc, #120]	; (80014bc <Turn_Off+0x8c>)
 8001442:	2201      	movs	r2, #1
 8001444:	701a      	strb	r2, [r3, #0]
      temp=1;                                            
 8001446:	2301      	movs	r3, #1
 8001448:	73fb      	strb	r3, [r7, #15]
			AIN1=0;                                            
 800144a:	4b1d      	ldr	r3, [pc, #116]	; (80014c0 <Turn_Off+0x90>)
 800144c:	2200      	movs	r2, #0
 800144e:	601a      	str	r2, [r3, #0]
			AIN2=0;
 8001450:	4b1c      	ldr	r3, [pc, #112]	; (80014c4 <Turn_Off+0x94>)
 8001452:	2200      	movs	r2, #0
 8001454:	601a      	str	r2, [r3, #0]
 8001456:	e001      	b.n	800145c <Turn_Off+0x2c>
      }
			else
      temp=0;
 8001458:	2300      	movs	r3, #0
 800145a:	73fb      	strb	r3, [r7, #15]
			
			
			if(Angle_Balance<(ZHONGZHI-800)||Angle_Balance>(ZHONGZHI+800)||voltage<700)count++;else count=0;
 800145c:	4b1a      	ldr	r3, [pc, #104]	; (80014c8 <Turn_Off+0x98>)
 800145e:	681b      	ldr	r3, [r3, #0]
 8001460:	491a      	ldr	r1, [pc, #104]	; (80014cc <Turn_Off+0x9c>)
 8001462:	4618      	mov	r0, r3
 8001464:	f7ff fd76 	bl	8000f54 <__aeabi_fcmplt>
 8001468:	4603      	mov	r3, r0
 800146a:	2b00      	cmp	r3, #0
 800146c:	d10c      	bne.n	8001488 <Turn_Off+0x58>
 800146e:	4b16      	ldr	r3, [pc, #88]	; (80014c8 <Turn_Off+0x98>)
 8001470:	681b      	ldr	r3, [r3, #0]
 8001472:	4917      	ldr	r1, [pc, #92]	; (80014d0 <Turn_Off+0xa0>)
 8001474:	4618      	mov	r0, r3
 8001476:	f7ff fd8b 	bl	8000f90 <__aeabi_fcmpgt>
 800147a:	4603      	mov	r3, r0
 800147c:	2b00      	cmp	r3, #0
 800147e:	d103      	bne.n	8001488 <Turn_Off+0x58>
 8001480:	687b      	ldr	r3, [r7, #4]
 8001482:	f5b3 7f2f 	cmp.w	r3, #700	; 0x2bc
 8001486:	da06      	bge.n	8001496 <Turn_Off+0x66>
 8001488:	4b12      	ldr	r3, [pc, #72]	; (80014d4 <Turn_Off+0xa4>)
 800148a:	781b      	ldrb	r3, [r3, #0]
 800148c:	3301      	adds	r3, #1
 800148e:	b2da      	uxtb	r2, r3
 8001490:	4b10      	ldr	r3, [pc, #64]	; (80014d4 <Turn_Off+0xa4>)
 8001492:	701a      	strb	r2, [r3, #0]
 8001494:	e002      	b.n	800149c <Turn_Off+0x6c>
 8001496:	4b0f      	ldr	r3, [pc, #60]	; (80014d4 <Turn_Off+0xa4>)
 8001498:	2200      	movs	r2, #0
 800149a:	701a      	strb	r2, [r3, #0]
			if(count==120)
 800149c:	4b0d      	ldr	r3, [pc, #52]	; (80014d4 <Turn_Off+0xa4>)
 800149e:	781b      	ldrb	r3, [r3, #0]
 80014a0:	2b78      	cmp	r3, #120	; 0x78
 80014a2:	d105      	bne.n	80014b0 <Turn_Off+0x80>
			{
				count=0;
 80014a4:	4b0b      	ldr	r3, [pc, #44]	; (80014d4 <Turn_Off+0xa4>)
 80014a6:	2200      	movs	r2, #0
 80014a8:	701a      	strb	r2, [r3, #0]
				Flag_Stop=1;
 80014aa:	4b04      	ldr	r3, [pc, #16]	; (80014bc <Turn_Off+0x8c>)
 80014ac:	2201      	movs	r2, #1
 80014ae:	701a      	strb	r2, [r3, #0]
			}	
      return temp;			
 80014b0:	7bfb      	ldrb	r3, [r7, #15]
}
 80014b2:	4618      	mov	r0, r3
 80014b4:	3710      	adds	r7, #16
 80014b6:	46bd      	mov	sp, r7
 80014b8:	bd80      	pop	{r7, pc}
 80014ba:	bf00      	nop
 80014bc:	20000000 	.word	0x20000000
 80014c0:	422181b4 	.word	0x422181b4
 80014c4:	422181b0 	.word	0x422181b0
 80014c8:	200004d4 	.word	0x200004d4
 80014cc:	45106000 	.word	0x45106000
 80014d0:	45746000 	.word	0x45746000
 80014d4:	20000070 	.word	0x20000070

080014d8 <myabs>:
Function: absolute value function
Entry parameters: int
Return Value: unsigned int
**************************************************************************/
int myabs(int a)
{ 		   
 80014d8:	b480      	push	{r7}
 80014da:	b085      	sub	sp, #20
 80014dc:	af00      	add	r7, sp, #0
 80014de:	6078      	str	r0, [r7, #4]
	  int temp;
		if(a<0)  temp=-a;  
 80014e0:	687b      	ldr	r3, [r7, #4]
 80014e2:	2b00      	cmp	r3, #0
 80014e4:	da03      	bge.n	80014ee <myabs+0x16>
 80014e6:	687b      	ldr	r3, [r7, #4]
 80014e8:	425b      	negs	r3, r3
 80014ea:	60fb      	str	r3, [r7, #12]
 80014ec:	e001      	b.n	80014f2 <myabs+0x1a>
	  else temp=a;
 80014ee:	687b      	ldr	r3, [r7, #4]
 80014f0:	60fb      	str	r3, [r7, #12]
	  return temp;
 80014f2:	68fb      	ldr	r3, [r7, #12]
}
 80014f4:	4618      	mov	r0, r3
 80014f6:	3714      	adds	r7, #20
 80014f8:	46bd      	mov	sp, r7
 80014fa:	bc80      	pop	{r7}
 80014fc:	4770      	bx	lr

080014fe <Float2Byte>:
//target:
//buf:
//beg:
// 
void Float2Byte(float *target,unsigned char *buf,unsigned char beg)
{
 80014fe:	b480      	push	{r7}
 8001500:	b087      	sub	sp, #28
 8001502:	af00      	add	r7, sp, #0
 8001504:	60f8      	str	r0, [r7, #12]
 8001506:	60b9      	str	r1, [r7, #8]
 8001508:	4613      	mov	r3, r2
 800150a:	71fb      	strb	r3, [r7, #7]
    unsigned char *point;
    point = (unsigned char*)target;	  //float
 800150c:	68fb      	ldr	r3, [r7, #12]
 800150e:	617b      	str	r3, [r7, #20]
    buf[beg]   = point[0];
 8001510:	79fb      	ldrb	r3, [r7, #7]
 8001512:	68ba      	ldr	r2, [r7, #8]
 8001514:	4413      	add	r3, r2
 8001516:	697a      	ldr	r2, [r7, #20]
 8001518:	7812      	ldrb	r2, [r2, #0]
 800151a:	701a      	strb	r2, [r3, #0]
    buf[beg+1] = point[1];
 800151c:	79fb      	ldrb	r3, [r7, #7]
 800151e:	3301      	adds	r3, #1
 8001520:	68ba      	ldr	r2, [r7, #8]
 8001522:	4413      	add	r3, r2
 8001524:	697a      	ldr	r2, [r7, #20]
 8001526:	7852      	ldrb	r2, [r2, #1]
 8001528:	701a      	strb	r2, [r3, #0]
    buf[beg+2] = point[2];
 800152a:	79fb      	ldrb	r3, [r7, #7]
 800152c:	3302      	adds	r3, #2
 800152e:	68ba      	ldr	r2, [r7, #8]
 8001530:	4413      	add	r3, r2
 8001532:	697a      	ldr	r2, [r7, #20]
 8001534:	7892      	ldrb	r2, [r2, #2]
 8001536:	701a      	strb	r2, [r3, #0]
    buf[beg+3] = point[3];
 8001538:	79fb      	ldrb	r3, [r7, #7]
 800153a:	3303      	adds	r3, #3
 800153c:	68ba      	ldr	r2, [r7, #8]
 800153e:	4413      	add	r3, r2
 8001540:	697a      	ldr	r2, [r7, #20]
 8001542:	78d2      	ldrb	r2, [r2, #3]
 8001544:	701a      	strb	r2, [r3, #0]
}
 8001546:	bf00      	nop
 8001548:	371c      	adds	r7, #28
 800154a:	46bd      	mov	sp, r7
 800154c:	bc80      	pop	{r7}
 800154e:	4770      	bx	lr

08001550 <DataScope_Get_Channel_Data>:
//
//Data
//Channel1-10
// 
void DataScope_Get_Channel_Data(float Data,unsigned char Channel)
{
 8001550:	b580      	push	{r7, lr}
 8001552:	b082      	sub	sp, #8
 8001554:	af00      	add	r7, sp, #0
 8001556:	6078      	str	r0, [r7, #4]
 8001558:	460b      	mov	r3, r1
 800155a:	70fb      	strb	r3, [r7, #3]
	if ( (Channel > 10) || (Channel == 0) ) return;  //100
 800155c:	78fb      	ldrb	r3, [r7, #3]
 800155e:	2b0a      	cmp	r3, #10
 8001560:	d864      	bhi.n	800162c <DataScope_Get_Channel_Data+0xdc>
 8001562:	78fb      	ldrb	r3, [r7, #3]
 8001564:	2b00      	cmp	r3, #0
 8001566:	d061      	beq.n	800162c <DataScope_Get_Channel_Data+0xdc>
  else
  {
     switch (Channel)
 8001568:	78fb      	ldrb	r3, [r7, #3]
 800156a:	3b01      	subs	r3, #1
 800156c:	2b09      	cmp	r3, #9
 800156e:	d85e      	bhi.n	800162e <DataScope_Get_Channel_Data+0xde>
 8001570:	a201      	add	r2, pc, #4	; (adr r2, 8001578 <DataScope_Get_Channel_Data+0x28>)
 8001572:	f852 f023 	ldr.w	pc, [r2, r3, lsl #2]
 8001576:	bf00      	nop
 8001578:	080015a1 	.word	0x080015a1
 800157c:	080015af 	.word	0x080015af
 8001580:	080015bd 	.word	0x080015bd
 8001584:	080015cb 	.word	0x080015cb
 8001588:	080015d9 	.word	0x080015d9
 800158c:	080015e7 	.word	0x080015e7
 8001590:	080015f5 	.word	0x080015f5
 8001594:	08001603 	.word	0x08001603
 8001598:	08001611 	.word	0x08001611
 800159c:	0800161f 	.word	0x0800161f
		{
      case 1:  Float2Byte(&Data,DataScope_OutPut_Buffer,1); break;
 80015a0:	1d3b      	adds	r3, r7, #4
 80015a2:	2201      	movs	r2, #1
 80015a4:	4923      	ldr	r1, [pc, #140]	; (8001634 <DataScope_Get_Channel_Data+0xe4>)
 80015a6:	4618      	mov	r0, r3
 80015a8:	f7ff ffa9 	bl	80014fe <Float2Byte>
 80015ac:	e03f      	b.n	800162e <DataScope_Get_Channel_Data+0xde>
      case 2:  Float2Byte(&Data,DataScope_OutPut_Buffer,5); break;
 80015ae:	1d3b      	adds	r3, r7, #4
 80015b0:	2205      	movs	r2, #5
 80015b2:	4920      	ldr	r1, [pc, #128]	; (8001634 <DataScope_Get_Channel_Data+0xe4>)
 80015b4:	4618      	mov	r0, r3
 80015b6:	f7ff ffa2 	bl	80014fe <Float2Byte>
 80015ba:	e038      	b.n	800162e <DataScope_Get_Channel_Data+0xde>
		  case 3:  Float2Byte(&Data,DataScope_OutPut_Buffer,9); break;
 80015bc:	1d3b      	adds	r3, r7, #4
 80015be:	2209      	movs	r2, #9
 80015c0:	491c      	ldr	r1, [pc, #112]	; (8001634 <DataScope_Get_Channel_Data+0xe4>)
 80015c2:	4618      	mov	r0, r3
 80015c4:	f7ff ff9b 	bl	80014fe <Float2Byte>
 80015c8:	e031      	b.n	800162e <DataScope_Get_Channel_Data+0xde>
		  case 4:  Float2Byte(&Data,DataScope_OutPut_Buffer,13); break;
 80015ca:	1d3b      	adds	r3, r7, #4
 80015cc:	220d      	movs	r2, #13
 80015ce:	4919      	ldr	r1, [pc, #100]	; (8001634 <DataScope_Get_Channel_Data+0xe4>)
 80015d0:	4618      	mov	r0, r3
 80015d2:	f7ff ff94 	bl	80014fe <Float2Byte>
 80015d6:	e02a      	b.n	800162e <DataScope_Get_Channel_Data+0xde>
		  case 5:  Float2Byte(&Data,DataScope_OutPut_Buffer,17); break;
 80015d8:	1d3b      	adds	r3, r7, #4
 80015da:	2211      	movs	r2, #17
 80015dc:	4915      	ldr	r1, [pc, #84]	; (8001634 <DataScope_Get_Channel_Data+0xe4>)
 80015de:	4618      	mov	r0, r3
 80015e0:	f7ff ff8d 	bl	80014fe <Float2Byte>
 80015e4:	e023      	b.n	800162e <DataScope_Get_Channel_Data+0xde>
		  case 6:  Float2Byte(&Data,DataScope_OutPut_Buffer,21); break;
 80015e6:	1d3b      	adds	r3, r7, #4
 80015e8:	2215      	movs	r2, #21
 80015ea:	4912      	ldr	r1, [pc, #72]	; (8001634 <DataScope_Get_Channel_Data+0xe4>)
 80015ec:	4618      	mov	r0, r3
 80015ee:	f7ff ff86 	bl	80014fe <Float2Byte>
 80015f2:	e01c      	b.n	800162e <DataScope_Get_Channel_Data+0xde>
		  case 7:  Float2Byte(&Data,DataScope_OutPut_Buffer,25); break;
 80015f4:	1d3b      	adds	r3, r7, #4
 80015f6:	2219      	movs	r2, #25
 80015f8:	490e      	ldr	r1, [pc, #56]	; (8001634 <DataScope_Get_Channel_Data+0xe4>)
 80015fa:	4618      	mov	r0, r3
 80015fc:	f7ff ff7f 	bl	80014fe <Float2Byte>
 8001600:	e015      	b.n	800162e <DataScope_Get_Channel_Data+0xde>
		  case 8:  Float2Byte(&Data,DataScope_OutPut_Buffer,29); break;
 8001602:	1d3b      	adds	r3, r7, #4
 8001604:	221d      	movs	r2, #29
 8001606:	490b      	ldr	r1, [pc, #44]	; (8001634 <DataScope_Get_Channel_Data+0xe4>)
 8001608:	4618      	mov	r0, r3
 800160a:	f7ff ff78 	bl	80014fe <Float2Byte>
 800160e:	e00e      	b.n	800162e <DataScope_Get_Channel_Data+0xde>
		  case 9:  Float2Byte(&Data,DataScope_OutPut_Buffer,33); break;
 8001610:	1d3b      	adds	r3, r7, #4
 8001612:	2221      	movs	r2, #33	; 0x21
 8001614:	4907      	ldr	r1, [pc, #28]	; (8001634 <DataScope_Get_Channel_Data+0xe4>)
 8001616:	4618      	mov	r0, r3
 8001618:	f7ff ff71 	bl	80014fe <Float2Byte>
 800161c:	e007      	b.n	800162e <DataScope_Get_Channel_Data+0xde>
		  case 10: Float2Byte(&Data,DataScope_OutPut_Buffer,37); break;
 800161e:	1d3b      	adds	r3, r7, #4
 8001620:	2225      	movs	r2, #37	; 0x25
 8001622:	4904      	ldr	r1, [pc, #16]	; (8001634 <DataScope_Get_Channel_Data+0xe4>)
 8001624:	4618      	mov	r0, r3
 8001626:	f7ff ff6a 	bl	80014fe <Float2Byte>
 800162a:	e000      	b.n	800162e <DataScope_Get_Channel_Data+0xde>
	if ( (Channel > 10) || (Channel == 0) ) return;  //100
 800162c:	bf00      	nop
		}
  }	 
}
 800162e:	3708      	adds	r7, #8
 8001630:	46bd      	mov	sp, r7
 8001632:	bd80      	pop	{r7, pc}
 8001634:	20000074 	.word	0x20000074

08001638 <DataScope_Data_Generate>:
// DataScopeV1.0 
//Channel_Number
//
//0 
unsigned char DataScope_Data_Generate(unsigned char Channel_Number)
{
 8001638:	b480      	push	{r7}
 800163a:	b083      	sub	sp, #12
 800163c:	af00      	add	r7, sp, #0
 800163e:	4603      	mov	r3, r0
 8001640:	71fb      	strb	r3, [r7, #7]
	if ( (Channel_Number > 10) || (Channel_Number == 0) ) { return 0; }  //100
 8001642:	79fb      	ldrb	r3, [r7, #7]
 8001644:	2b0a      	cmp	r3, #10
 8001646:	d802      	bhi.n	800164e <DataScope_Data_Generate+0x16>
 8001648:	79fb      	ldrb	r3, [r7, #7]
 800164a:	2b00      	cmp	r3, #0
 800164c:	d101      	bne.n	8001652 <DataScope_Data_Generate+0x1a>
 800164e:	2300      	movs	r3, #0
 8001650:	e054      	b.n	80016fc <DataScope_Data_Generate+0xc4>
  else
  {	
	 DataScope_OutPut_Buffer[0] = '$';  //
 8001652:	4b2d      	ldr	r3, [pc, #180]	; (8001708 <DataScope_Data_Generate+0xd0>)
 8001654:	2224      	movs	r2, #36	; 0x24
 8001656:	701a      	strb	r2, [r3, #0]
		
	 switch(Channel_Number)   
 8001658:	79fb      	ldrb	r3, [r7, #7]
 800165a:	3b01      	subs	r3, #1
 800165c:	2b09      	cmp	r3, #9
 800165e:	d84c      	bhi.n	80016fa <DataScope_Data_Generate+0xc2>
 8001660:	a201      	add	r2, pc, #4	; (adr r2, 8001668 <DataScope_Data_Generate+0x30>)
 8001662:	f852 f023 	ldr.w	pc, [r2, r3, lsl #2]
 8001666:	bf00      	nop
 8001668:	08001691 	.word	0x08001691
 800166c:	0800169b 	.word	0x0800169b
 8001670:	080016a5 	.word	0x080016a5
 8001674:	080016af 	.word	0x080016af
 8001678:	080016b9 	.word	0x080016b9
 800167c:	080016c3 	.word	0x080016c3
 8001680:	080016cd 	.word	0x080016cd
 8001684:	080016d7 	.word	0x080016d7
 8001688:	080016e3 	.word	0x080016e3
 800168c:	080016ef 	.word	0x080016ef
   { 
		 case 1:   DataScope_OutPut_Buffer[5]  =  5; return  6;  
 8001690:	4b1d      	ldr	r3, [pc, #116]	; (8001708 <DataScope_Data_Generate+0xd0>)
 8001692:	2205      	movs	r2, #5
 8001694:	715a      	strb	r2, [r3, #5]
 8001696:	2306      	movs	r3, #6
 8001698:	e030      	b.n	80016fc <DataScope_Data_Generate+0xc4>
		 case 2:   DataScope_OutPut_Buffer[9]  =  9; return 10;
 800169a:	4b1b      	ldr	r3, [pc, #108]	; (8001708 <DataScope_Data_Generate+0xd0>)
 800169c:	2209      	movs	r2, #9
 800169e:	725a      	strb	r2, [r3, #9]
 80016a0:	230a      	movs	r3, #10
 80016a2:	e02b      	b.n	80016fc <DataScope_Data_Generate+0xc4>
		 case 3:   DataScope_OutPut_Buffer[13] = 13; return 14; 
 80016a4:	4b18      	ldr	r3, [pc, #96]	; (8001708 <DataScope_Data_Generate+0xd0>)
 80016a6:	220d      	movs	r2, #13
 80016a8:	735a      	strb	r2, [r3, #13]
 80016aa:	230e      	movs	r3, #14
 80016ac:	e026      	b.n	80016fc <DataScope_Data_Generate+0xc4>
		 case 4:   DataScope_OutPut_Buffer[17] = 17; return 18;
 80016ae:	4b16      	ldr	r3, [pc, #88]	; (8001708 <DataScope_Data_Generate+0xd0>)
 80016b0:	2211      	movs	r2, #17
 80016b2:	745a      	strb	r2, [r3, #17]
 80016b4:	2312      	movs	r3, #18
 80016b6:	e021      	b.n	80016fc <DataScope_Data_Generate+0xc4>
		 case 5:   DataScope_OutPut_Buffer[21] = 21; return 22;  
 80016b8:	4b13      	ldr	r3, [pc, #76]	; (8001708 <DataScope_Data_Generate+0xd0>)
 80016ba:	2215      	movs	r2, #21
 80016bc:	755a      	strb	r2, [r3, #21]
 80016be:	2316      	movs	r3, #22
 80016c0:	e01c      	b.n	80016fc <DataScope_Data_Generate+0xc4>
		 case 6:   DataScope_OutPut_Buffer[25] = 25; return 26;
 80016c2:	4b11      	ldr	r3, [pc, #68]	; (8001708 <DataScope_Data_Generate+0xd0>)
 80016c4:	2219      	movs	r2, #25
 80016c6:	765a      	strb	r2, [r3, #25]
 80016c8:	231a      	movs	r3, #26
 80016ca:	e017      	b.n	80016fc <DataScope_Data_Generate+0xc4>
		 case 7:   DataScope_OutPut_Buffer[29] = 29; return 30; 
 80016cc:	4b0e      	ldr	r3, [pc, #56]	; (8001708 <DataScope_Data_Generate+0xd0>)
 80016ce:	221d      	movs	r2, #29
 80016d0:	775a      	strb	r2, [r3, #29]
 80016d2:	231e      	movs	r3, #30
 80016d4:	e012      	b.n	80016fc <DataScope_Data_Generate+0xc4>
		 case 8:   DataScope_OutPut_Buffer[33] = 33; return 34; 
 80016d6:	4b0c      	ldr	r3, [pc, #48]	; (8001708 <DataScope_Data_Generate+0xd0>)
 80016d8:	2221      	movs	r2, #33	; 0x21
 80016da:	f883 2021 	strb.w	r2, [r3, #33]	; 0x21
 80016de:	2322      	movs	r3, #34	; 0x22
 80016e0:	e00c      	b.n	80016fc <DataScope_Data_Generate+0xc4>
		 case 9:   DataScope_OutPut_Buffer[37] = 37; return 38;
 80016e2:	4b09      	ldr	r3, [pc, #36]	; (8001708 <DataScope_Data_Generate+0xd0>)
 80016e4:	2225      	movs	r2, #37	; 0x25
 80016e6:	f883 2025 	strb.w	r2, [r3, #37]	; 0x25
 80016ea:	2326      	movs	r3, #38	; 0x26
 80016ec:	e006      	b.n	80016fc <DataScope_Data_Generate+0xc4>
     case 10:  DataScope_OutPut_Buffer[41] = 41; return 42; 
 80016ee:	4b06      	ldr	r3, [pc, #24]	; (8001708 <DataScope_Data_Generate+0xd0>)
 80016f0:	2229      	movs	r2, #41	; 0x29
 80016f2:	f883 2029 	strb.w	r2, [r3, #41]	; 0x29
 80016f6:	232a      	movs	r3, #42	; 0x2a
 80016f8:	e000      	b.n	80016fc <DataScope_Data_Generate+0xc4>
   }	 
  }
	return 0;
 80016fa:	2300      	movs	r3, #0
}
 80016fc:	4618      	mov	r0, r3
 80016fe:	370c      	adds	r7, #12
 8001700:	46bd      	mov	sp, r7
 8001702:	bc80      	pop	{r7}
 8001704:	4770      	bx	lr
 8001706:	bf00      	nop
 8001708:	20000074 	.word	0x20000074

0800170c <oled_show>:
Function: OLED display
Entry parameters: none
Return Value: None
**************************************************************************/
void oled_show(void)
{
 800170c:	b580      	push	{r7, lr}
 800170e:	b082      	sub	sp, #8
 8001710:	af02      	add	r7, sp, #8
		//=============The first row shows the angle PD to control the P parameter Position_KP=======================//	
		                      OLED_ShowString(00,00,"B-KP");                   
 8001712:	4ab9      	ldr	r2, [pc, #740]	; (80019f8 <oled_show+0x2ec>)
 8001714:	2100      	movs	r1, #0
 8001716:	2000      	movs	r0, #0
 8001718:	f001 fa90 	bl	8002c3c <OLED_ShowString>
		                      OLED_ShowNumber(40,00,Balance_KP,3,12);
 800171c:	4bb7      	ldr	r3, [pc, #732]	; (80019fc <oled_show+0x2f0>)
 800171e:	681b      	ldr	r3, [r3, #0]
 8001720:	4618      	mov	r0, r3
 8001722:	f7ff fc65 	bl	8000ff0 <__aeabi_f2uiz>
 8001726:	4602      	mov	r2, r0
 8001728:	230c      	movs	r3, #12
 800172a:	9300      	str	r3, [sp, #0]
 800172c:	2303      	movs	r3, #3
 800172e:	2100      	movs	r1, #0
 8001730:	2028      	movs	r0, #40	; 0x28
 8001732:	f001 fa15 	bl	8002b60 <OLED_ShowNumber>
	                        OLED_ShowString(57,00,"."),  
 8001736:	4ab2      	ldr	r2, [pc, #712]	; (8001a00 <oled_show+0x2f4>)
 8001738:	2100      	movs	r1, #0
 800173a:	2039      	movs	r0, #57	; 0x39
 800173c:	f001 fa7e 	bl	8002c3c <OLED_ShowString>
	                        OLED_ShowNumber(61,00,(int)(Balance_KP*10)%10,1,12);
 8001740:	4bae      	ldr	r3, [pc, #696]	; (80019fc <oled_show+0x2f0>)
 8001742:	681b      	ldr	r3, [r3, #0]
 8001744:	49af      	ldr	r1, [pc, #700]	; (8001a04 <oled_show+0x2f8>)
 8001746:	4618      	mov	r0, r3
 8001748:	f7ff fa66 	bl	8000c18 <__aeabi_fmul>
 800174c:	4603      	mov	r3, r0
 800174e:	4618      	mov	r0, r3
 8001750:	f7ff fc28 	bl	8000fa4 <__aeabi_f2iz>
 8001754:	4602      	mov	r2, r0
 8001756:	4bac      	ldr	r3, [pc, #688]	; (8001a08 <oled_show+0x2fc>)
 8001758:	fb83 1302 	smull	r1, r3, r3, r2
 800175c:	1099      	asrs	r1, r3, #2
 800175e:	17d3      	asrs	r3, r2, #31
 8001760:	1ac9      	subs	r1, r1, r3
 8001762:	460b      	mov	r3, r1
 8001764:	009b      	lsls	r3, r3, #2
 8001766:	440b      	add	r3, r1
 8001768:	005b      	lsls	r3, r3, #1
 800176a:	1ad1      	subs	r1, r2, r3
 800176c:	460a      	mov	r2, r1
 800176e:	230c      	movs	r3, #12
 8001770:	9300      	str	r3, [sp, #0]
 8001772:	2301      	movs	r3, #1
 8001774:	2100      	movs	r1, #0
 8001776:	203d      	movs	r0, #61	; 0x3d
 8001778:	f001 f9f2 	bl	8002b60 <OLED_ShowNumber>
	
	                        OLED_ShowString(95,00,"A:");	  
 800177c:	4aa3      	ldr	r2, [pc, #652]	; (8001a0c <oled_show+0x300>)
 800177e:	2100      	movs	r1, #0
 8001780:	205f      	movs	r0, #95	; 0x5f
 8001782:	f001 fa5b 	bl	8002c3c <OLED_ShowString>
	                        OLED_ShowNumber(108,00,Amplitude1,2,12);
 8001786:	4ba2      	ldr	r3, [pc, #648]	; (8001a10 <oled_show+0x304>)
 8001788:	681b      	ldr	r3, [r3, #0]
 800178a:	4618      	mov	r0, r3
 800178c:	f7ff fc30 	bl	8000ff0 <__aeabi_f2uiz>
 8001790:	4602      	mov	r2, r0
 8001792:	230c      	movs	r3, #12
 8001794:	9300      	str	r3, [sp, #0]
 8001796:	2302      	movs	r3, #2
 8001798:	2100      	movs	r1, #0
 800179a:	206c      	movs	r0, #108	; 0x6c
 800179c:	f001 f9e0 	bl	8002b60 <OLED_ShowNumber>
		//=============The second row shows the angle PD to control the D parameter.=======================//	
		                      OLED_ShowString(00,10,"B-KD");
 80017a0:	4a9c      	ldr	r2, [pc, #624]	; (8001a14 <oled_show+0x308>)
 80017a2:	210a      	movs	r1, #10
 80017a4:	2000      	movs	r0, #0
 80017a6:	f001 fa49 	bl	8002c3c <OLED_ShowString>
		                      OLED_ShowNumber(40,10,Balance_KD,3,12);
 80017aa:	4b9b      	ldr	r3, [pc, #620]	; (8001a18 <oled_show+0x30c>)
 80017ac:	681b      	ldr	r3, [r3, #0]
 80017ae:	4618      	mov	r0, r3
 80017b0:	f7ff fc1e 	bl	8000ff0 <__aeabi_f2uiz>
 80017b4:	4602      	mov	r2, r0
 80017b6:	230c      	movs	r3, #12
 80017b8:	9300      	str	r3, [sp, #0]
 80017ba:	2303      	movs	r3, #3
 80017bc:	210a      	movs	r1, #10
 80017be:	2028      	movs	r0, #40	; 0x28
 80017c0:	f001 f9ce 	bl	8002b60 <OLED_ShowNumber>
	                        OLED_ShowString(57,10,"."),  
 80017c4:	4a8e      	ldr	r2, [pc, #568]	; (8001a00 <oled_show+0x2f4>)
 80017c6:	210a      	movs	r1, #10
 80017c8:	2039      	movs	r0, #57	; 0x39
 80017ca:	f001 fa37 	bl	8002c3c <OLED_ShowString>
	                        OLED_ShowNumber(61,10,(int)(Balance_KD*10)%10,1,12);
 80017ce:	4b92      	ldr	r3, [pc, #584]	; (8001a18 <oled_show+0x30c>)
 80017d0:	681b      	ldr	r3, [r3, #0]
 80017d2:	498c      	ldr	r1, [pc, #560]	; (8001a04 <oled_show+0x2f8>)
 80017d4:	4618      	mov	r0, r3
 80017d6:	f7ff fa1f 	bl	8000c18 <__aeabi_fmul>
 80017da:	4603      	mov	r3, r0
 80017dc:	4618      	mov	r0, r3
 80017de:	f7ff fbe1 	bl	8000fa4 <__aeabi_f2iz>
 80017e2:	4602      	mov	r2, r0
 80017e4:	4b88      	ldr	r3, [pc, #544]	; (8001a08 <oled_show+0x2fc>)
 80017e6:	fb83 1302 	smull	r1, r3, r3, r2
 80017ea:	1099      	asrs	r1, r3, #2
 80017ec:	17d3      	asrs	r3, r2, #31
 80017ee:	1ac9      	subs	r1, r1, r3
 80017f0:	460b      	mov	r3, r1
 80017f2:	009b      	lsls	r3, r3, #2
 80017f4:	440b      	add	r3, r1
 80017f6:	005b      	lsls	r3, r3, #1
 80017f8:	1ad1      	subs	r1, r2, r3
 80017fa:	460a      	mov	r2, r1
 80017fc:	230c      	movs	r3, #12
 80017fe:	9300      	str	r3, [sp, #0]
 8001800:	2301      	movs	r3, #1
 8001802:	210a      	movs	r1, #10
 8001804:	203d      	movs	r0, #61	; 0x3d
 8001806:	f001 f9ab 	bl	8002b60 <OLED_ShowNumber>
	
	                        OLED_ShowString(95,10,"A:");	  
 800180a:	4a80      	ldr	r2, [pc, #512]	; (8001a0c <oled_show+0x300>)
 800180c:	210a      	movs	r1, #10
 800180e:	205f      	movs	r0, #95	; 0x5f
 8001810:	f001 fa14 	bl	8002c3c <OLED_ShowString>
	                        OLED_ShowNumber(108,10,Amplitude2,2,12);
 8001814:	4b81      	ldr	r3, [pc, #516]	; (8001a1c <oled_show+0x310>)
 8001816:	681b      	ldr	r3, [r3, #0]
 8001818:	4618      	mov	r0, r3
 800181a:	f7ff fbe9 	bl	8000ff0 <__aeabi_f2uiz>
 800181e:	4602      	mov	r2, r0
 8001820:	230c      	movs	r3, #12
 8001822:	9300      	str	r3, [sp, #0]
 8001824:	2302      	movs	r3, #2
 8001826:	210a      	movs	r1, #10
 8001828:	206c      	movs	r0, #108	; 0x6c
 800182a:	f001 f999 	bl	8002b60 <OLED_ShowNumber>
		//=============Third line display encoder Position_KP=======================//	
		                      OLED_ShowString(00,20,"P-KP");
 800182e:	4a7c      	ldr	r2, [pc, #496]	; (8001a20 <oled_show+0x314>)
 8001830:	2114      	movs	r1, #20
 8001832:	2000      	movs	r0, #0
 8001834:	f001 fa02 	bl	8002c3c <OLED_ShowString>
		                      OLED_ShowNumber(40,20,Position_KP,3,12);
 8001838:	4b7a      	ldr	r3, [pc, #488]	; (8001a24 <oled_show+0x318>)
 800183a:	681b      	ldr	r3, [r3, #0]
 800183c:	4618      	mov	r0, r3
 800183e:	f7ff fbd7 	bl	8000ff0 <__aeabi_f2uiz>
 8001842:	4602      	mov	r2, r0
 8001844:	230c      	movs	r3, #12
 8001846:	9300      	str	r3, [sp, #0]
 8001848:	2303      	movs	r3, #3
 800184a:	2114      	movs	r1, #20
 800184c:	2028      	movs	r0, #40	; 0x28
 800184e:	f001 f987 	bl	8002b60 <OLED_ShowNumber>
	                        OLED_ShowString(57,20,"."),  
 8001852:	4a6b      	ldr	r2, [pc, #428]	; (8001a00 <oled_show+0x2f4>)
 8001854:	2114      	movs	r1, #20
 8001856:	2039      	movs	r0, #57	; 0x39
 8001858:	f001 f9f0 	bl	8002c3c <OLED_ShowString>
	                        OLED_ShowNumber(61,20,(int)(Position_KP*10)%10,1,12);
 800185c:	4b71      	ldr	r3, [pc, #452]	; (8001a24 <oled_show+0x318>)
 800185e:	681b      	ldr	r3, [r3, #0]
 8001860:	4968      	ldr	r1, [pc, #416]	; (8001a04 <oled_show+0x2f8>)
 8001862:	4618      	mov	r0, r3
 8001864:	f7ff f9d8 	bl	8000c18 <__aeabi_fmul>
 8001868:	4603      	mov	r3, r0
 800186a:	4618      	mov	r0, r3
 800186c:	f7ff fb9a 	bl	8000fa4 <__aeabi_f2iz>
 8001870:	4602      	mov	r2, r0
 8001872:	4b65      	ldr	r3, [pc, #404]	; (8001a08 <oled_show+0x2fc>)
 8001874:	fb83 1302 	smull	r1, r3, r3, r2
 8001878:	1099      	asrs	r1, r3, #2
 800187a:	17d3      	asrs	r3, r2, #31
 800187c:	1ac9      	subs	r1, r1, r3
 800187e:	460b      	mov	r3, r1
 8001880:	009b      	lsls	r3, r3, #2
 8001882:	440b      	add	r3, r1
 8001884:	005b      	lsls	r3, r3, #1
 8001886:	1ad1      	subs	r1, r2, r3
 8001888:	460a      	mov	r2, r1
 800188a:	230c      	movs	r3, #12
 800188c:	9300      	str	r3, [sp, #0]
 800188e:	2301      	movs	r3, #1
 8001890:	2114      	movs	r1, #20
 8001892:	203d      	movs	r0, #61	; 0x3d
 8001894:	f001 f964 	bl	8002b60 <OLED_ShowNumber>
													
												  OLED_ShowString(95,20,"A:");	  
 8001898:	4a5c      	ldr	r2, [pc, #368]	; (8001a0c <oled_show+0x300>)
 800189a:	2114      	movs	r1, #20
 800189c:	205f      	movs	r0, #95	; 0x5f
 800189e:	f001 f9cd 	bl	8002c3c <OLED_ShowString>
	                        OLED_ShowNumber(108,20,Amplitude3,2,12);
 80018a2:	4b61      	ldr	r3, [pc, #388]	; (8001a28 <oled_show+0x31c>)
 80018a4:	681b      	ldr	r3, [r3, #0]
 80018a6:	4618      	mov	r0, r3
 80018a8:	f7ff fba2 	bl	8000ff0 <__aeabi_f2uiz>
 80018ac:	4602      	mov	r2, r0
 80018ae:	230c      	movs	r3, #12
 80018b0:	9300      	str	r3, [sp, #0]
 80018b2:	2302      	movs	r3, #2
 80018b4:	2114      	movs	r1, #20
 80018b6:	206c      	movs	r0, #108	; 0x6c
 80018b8:	f001 f952 	bl	8002b60 <OLED_ShowNumber>
		//=============Fourth line display encoder 1=======================//	
		                      OLED_ShowString(00,30,"P-KD");
 80018bc:	4a5b      	ldr	r2, [pc, #364]	; (8001a2c <oled_show+0x320>)
 80018be:	211e      	movs	r1, #30
 80018c0:	2000      	movs	r0, #0
 80018c2:	f001 f9bb 	bl	8002c3c <OLED_ShowString>
		                      OLED_ShowNumber(40,30,Position_KD,3,12);
 80018c6:	4b5a      	ldr	r3, [pc, #360]	; (8001a30 <oled_show+0x324>)
 80018c8:	681b      	ldr	r3, [r3, #0]
 80018ca:	4618      	mov	r0, r3
 80018cc:	f7ff fb90 	bl	8000ff0 <__aeabi_f2uiz>
 80018d0:	4602      	mov	r2, r0
 80018d2:	230c      	movs	r3, #12
 80018d4:	9300      	str	r3, [sp, #0]
 80018d6:	2303      	movs	r3, #3
 80018d8:	211e      	movs	r1, #30
 80018da:	2028      	movs	r0, #40	; 0x28
 80018dc:	f001 f940 	bl	8002b60 <OLED_ShowNumber>
	                        OLED_ShowString(57,30,"."),  
 80018e0:	4a47      	ldr	r2, [pc, #284]	; (8001a00 <oled_show+0x2f4>)
 80018e2:	211e      	movs	r1, #30
 80018e4:	2039      	movs	r0, #57	; 0x39
 80018e6:	f001 f9a9 	bl	8002c3c <OLED_ShowString>
	                        OLED_ShowNumber(61,30,(int)(Position_KD*10)%10,1,12);
 80018ea:	4b51      	ldr	r3, [pc, #324]	; (8001a30 <oled_show+0x324>)
 80018ec:	681b      	ldr	r3, [r3, #0]
 80018ee:	4945      	ldr	r1, [pc, #276]	; (8001a04 <oled_show+0x2f8>)
 80018f0:	4618      	mov	r0, r3
 80018f2:	f7ff f991 	bl	8000c18 <__aeabi_fmul>
 80018f6:	4603      	mov	r3, r0
 80018f8:	4618      	mov	r0, r3
 80018fa:	f7ff fb53 	bl	8000fa4 <__aeabi_f2iz>
 80018fe:	4602      	mov	r2, r0
 8001900:	4b41      	ldr	r3, [pc, #260]	; (8001a08 <oled_show+0x2fc>)
 8001902:	fb83 1302 	smull	r1, r3, r3, r2
 8001906:	1099      	asrs	r1, r3, #2
 8001908:	17d3      	asrs	r3, r2, #31
 800190a:	1ac9      	subs	r1, r1, r3
 800190c:	460b      	mov	r3, r1
 800190e:	009b      	lsls	r3, r3, #2
 8001910:	440b      	add	r3, r1
 8001912:	005b      	lsls	r3, r3, #1
 8001914:	1ad1      	subs	r1, r2, r3
 8001916:	460a      	mov	r2, r1
 8001918:	230c      	movs	r3, #12
 800191a:	9300      	str	r3, [sp, #0]
 800191c:	2301      	movs	r3, #1
 800191e:	211e      	movs	r1, #30
 8001920:	203d      	movs	r0, #61	; 0x3d
 8001922:	f001 f91d 	bl	8002b60 <OLED_ShowNumber>
													
													OLED_ShowString(95,30,"A:");	  
 8001926:	4a39      	ldr	r2, [pc, #228]	; (8001a0c <oled_show+0x300>)
 8001928:	211e      	movs	r1, #30
 800192a:	205f      	movs	r0, #95	; 0x5f
 800192c:	f001 f986 	bl	8002c3c <OLED_ShowString>
	                        OLED_ShowNumber(108,30,Amplitude4,2,12);
 8001930:	4b40      	ldr	r3, [pc, #256]	; (8001a34 <oled_show+0x328>)
 8001932:	681b      	ldr	r3, [r3, #0]
 8001934:	4618      	mov	r0, r3
 8001936:	f7ff fb5b 	bl	8000ff0 <__aeabi_f2uiz>
 800193a:	4602      	mov	r2, r0
 800193c:	230c      	movs	r3, #12
 800193e:	9300      	str	r3, [sp, #0]
 8001940:	2302      	movs	r3, #2
 8001942:	211e      	movs	r1, #30
 8001944:	206c      	movs	r0, #108	; 0x6c
 8001946:	f001 f90b 	bl	8002b60 <OLED_ShowNumber>
		//======This is the PD parameter to be adjusted for scroll menu selection.										
		  if(Menu==1)
 800194a:	4b3b      	ldr	r3, [pc, #236]	; (8001a38 <oled_show+0x32c>)
 800194c:	681b      	ldr	r3, [r3, #0]
 800194e:	f04f 517e 	mov.w	r1, #1065353216	; 0x3f800000
 8001952:	4618      	mov	r0, r3
 8001954:	f7ff faf4 	bl	8000f40 <__aeabi_fcmpeq>
 8001958:	4603      	mov	r3, r0
 800195a:	2b00      	cmp	r3, #0
 800195c:	d020      	beq.n	80019a0 <oled_show+0x294>
	   	{
			 OLED_ShowChar(75,00,'Y',12,1);   
 800195e:	2301      	movs	r3, #1
 8001960:	9300      	str	r3, [sp, #0]
 8001962:	230c      	movs	r3, #12
 8001964:	2259      	movs	r2, #89	; 0x59
 8001966:	2100      	movs	r1, #0
 8001968:	204b      	movs	r0, #75	; 0x4b
 800196a:	f001 f86b 	bl	8002a44 <OLED_ShowChar>
			 OLED_ShowChar(75,10,'N',12,1);
 800196e:	2301      	movs	r3, #1
 8001970:	9300      	str	r3, [sp, #0]
 8001972:	230c      	movs	r3, #12
 8001974:	224e      	movs	r2, #78	; 0x4e
 8001976:	210a      	movs	r1, #10
 8001978:	204b      	movs	r0, #75	; 0x4b
 800197a:	f001 f863 	bl	8002a44 <OLED_ShowChar>
			 OLED_ShowChar(75,20,'N',12,1);
 800197e:	2301      	movs	r3, #1
 8001980:	9300      	str	r3, [sp, #0]
 8001982:	230c      	movs	r3, #12
 8001984:	224e      	movs	r2, #78	; 0x4e
 8001986:	2114      	movs	r1, #20
 8001988:	204b      	movs	r0, #75	; 0x4b
 800198a:	f001 f85b 	bl	8002a44 <OLED_ShowChar>
			 OLED_ShowChar(75,30,'N',12,1);
 800198e:	2301      	movs	r3, #1
 8001990:	9300      	str	r3, [sp, #0]
 8001992:	230c      	movs	r3, #12
 8001994:	224e      	movs	r2, #78	; 0x4e
 8001996:	211e      	movs	r1, #30
 8001998:	204b      	movs	r0, #75	; 0x4b
 800199a:	f001 f853 	bl	8002a44 <OLED_ShowChar>
 800199e:	e0a1      	b.n	8001ae4 <oled_show+0x3d8>
	  	}
		  else	if(Menu==2)
 80019a0:	4b25      	ldr	r3, [pc, #148]	; (8001a38 <oled_show+0x32c>)
 80019a2:	681b      	ldr	r3, [r3, #0]
 80019a4:	f04f 4180 	mov.w	r1, #1073741824	; 0x40000000
 80019a8:	4618      	mov	r0, r3
 80019aa:	f7ff fac9 	bl	8000f40 <__aeabi_fcmpeq>
 80019ae:	4603      	mov	r3, r0
 80019b0:	2b00      	cmp	r3, #0
 80019b2:	d043      	beq.n	8001a3c <oled_show+0x330>
	   	{
			 OLED_ShowChar(75,00,'N',12,1);
 80019b4:	2301      	movs	r3, #1
 80019b6:	9300      	str	r3, [sp, #0]
 80019b8:	230c      	movs	r3, #12
 80019ba:	224e      	movs	r2, #78	; 0x4e
 80019bc:	2100      	movs	r1, #0
 80019be:	204b      	movs	r0, #75	; 0x4b
 80019c0:	f001 f840 	bl	8002a44 <OLED_ShowChar>
			 OLED_ShowChar(75,10,'Y',12,1);
 80019c4:	2301      	movs	r3, #1
 80019c6:	9300      	str	r3, [sp, #0]
 80019c8:	230c      	movs	r3, #12
 80019ca:	2259      	movs	r2, #89	; 0x59
 80019cc:	210a      	movs	r1, #10
 80019ce:	204b      	movs	r0, #75	; 0x4b
 80019d0:	f001 f838 	bl	8002a44 <OLED_ShowChar>
			 OLED_ShowChar(75,20,'N',12,1);
 80019d4:	2301      	movs	r3, #1
 80019d6:	9300      	str	r3, [sp, #0]
 80019d8:	230c      	movs	r3, #12
 80019da:	224e      	movs	r2, #78	; 0x4e
 80019dc:	2114      	movs	r1, #20
 80019de:	204b      	movs	r0, #75	; 0x4b
 80019e0:	f001 f830 	bl	8002a44 <OLED_ShowChar>
			 OLED_ShowChar(75,30,'N',12,1);
 80019e4:	2301      	movs	r3, #1
 80019e6:	9300      	str	r3, [sp, #0]
 80019e8:	230c      	movs	r3, #12
 80019ea:	224e      	movs	r2, #78	; 0x4e
 80019ec:	211e      	movs	r1, #30
 80019ee:	204b      	movs	r0, #75	; 0x4b
 80019f0:	f001 f828 	bl	8002a44 <OLED_ShowChar>
 80019f4:	e076      	b.n	8001ae4 <oled_show+0x3d8>
 80019f6:	bf00      	nop
 80019f8:	08003504 	.word	0x08003504
 80019fc:	20000008 	.word	0x20000008
 8001a00:	0800350c 	.word	0x0800350c
 8001a04:	41200000 	.word	0x41200000
 8001a08:	66666667 	.word	0x66666667
 8001a0c:	08003510 	.word	0x08003510
 8001a10:	2000001c 	.word	0x2000001c
 8001a14:	08003514 	.word	0x08003514
 8001a18:	2000000c 	.word	0x2000000c
 8001a1c:	20000020 	.word	0x20000020
 8001a20:	0800351c 	.word	0x0800351c
 8001a24:	20000010 	.word	0x20000010
 8001a28:	20000024 	.word	0x20000024
 8001a2c:	08003524 	.word	0x08003524
 8001a30:	20000014 	.word	0x20000014
 8001a34:	20000028 	.word	0x20000028
 8001a38:	20000018 	.word	0x20000018
			}		
      else if(Menu==3)
 8001a3c:	4b68      	ldr	r3, [pc, #416]	; (8001be0 <oled_show+0x4d4>)
 8001a3e:	681b      	ldr	r3, [r3, #0]
 8001a40:	4968      	ldr	r1, [pc, #416]	; (8001be4 <oled_show+0x4d8>)
 8001a42:	4618      	mov	r0, r3
 8001a44:	f7ff fa7c 	bl	8000f40 <__aeabi_fcmpeq>
 8001a48:	4603      	mov	r3, r0
 8001a4a:	2b00      	cmp	r3, #0
 8001a4c:	d020      	beq.n	8001a90 <oled_show+0x384>
	   	{			
			 OLED_ShowChar(75,00,'N',12,1);
 8001a4e:	2301      	movs	r3, #1
 8001a50:	9300      	str	r3, [sp, #0]
 8001a52:	230c      	movs	r3, #12
 8001a54:	224e      	movs	r2, #78	; 0x4e
 8001a56:	2100      	movs	r1, #0
 8001a58:	204b      	movs	r0, #75	; 0x4b
 8001a5a:	f000 fff3 	bl	8002a44 <OLED_ShowChar>
			 OLED_ShowChar(75,10,'N',12,1);
 8001a5e:	2301      	movs	r3, #1
 8001a60:	9300      	str	r3, [sp, #0]
 8001a62:	230c      	movs	r3, #12
 8001a64:	224e      	movs	r2, #78	; 0x4e
 8001a66:	210a      	movs	r1, #10
 8001a68:	204b      	movs	r0, #75	; 0x4b
 8001a6a:	f000 ffeb 	bl	8002a44 <OLED_ShowChar>
			 OLED_ShowChar(75,20,'Y',12,1);
 8001a6e:	2301      	movs	r3, #1
 8001a70:	9300      	str	r3, [sp, #0]
 8001a72:	230c      	movs	r3, #12
 8001a74:	2259      	movs	r2, #89	; 0x59
 8001a76:	2114      	movs	r1, #20
 8001a78:	204b      	movs	r0, #75	; 0x4b
 8001a7a:	f000 ffe3 	bl	8002a44 <OLED_ShowChar>
			 OLED_ShowChar(75,30,'N',12,1);
 8001a7e:	2301      	movs	r3, #1
 8001a80:	9300      	str	r3, [sp, #0]
 8001a82:	230c      	movs	r3, #12
 8001a84:	224e      	movs	r2, #78	; 0x4e
 8001a86:	211e      	movs	r1, #30
 8001a88:	204b      	movs	r0, #75	; 0x4b
 8001a8a:	f000 ffdb 	bl	8002a44 <OLED_ShowChar>
 8001a8e:	e029      	b.n	8001ae4 <oled_show+0x3d8>
			}		
      else if(Menu==4)
 8001a90:	4b53      	ldr	r3, [pc, #332]	; (8001be0 <oled_show+0x4d4>)
 8001a92:	681b      	ldr	r3, [r3, #0]
 8001a94:	f04f 4181 	mov.w	r1, #1082130432	; 0x40800000
 8001a98:	4618      	mov	r0, r3
 8001a9a:	f7ff fa51 	bl	8000f40 <__aeabi_fcmpeq>
 8001a9e:	4603      	mov	r3, r0
 8001aa0:	2b00      	cmp	r3, #0
 8001aa2:	d01f      	beq.n	8001ae4 <oled_show+0x3d8>
	   	{				
			 OLED_ShowChar(75,00,'N',12,1);
 8001aa4:	2301      	movs	r3, #1
 8001aa6:	9300      	str	r3, [sp, #0]
 8001aa8:	230c      	movs	r3, #12
 8001aaa:	224e      	movs	r2, #78	; 0x4e
 8001aac:	2100      	movs	r1, #0
 8001aae:	204b      	movs	r0, #75	; 0x4b
 8001ab0:	f000 ffc8 	bl	8002a44 <OLED_ShowChar>
			 OLED_ShowChar(75,10,'N',12,1);
 8001ab4:	2301      	movs	r3, #1
 8001ab6:	9300      	str	r3, [sp, #0]
 8001ab8:	230c      	movs	r3, #12
 8001aba:	224e      	movs	r2, #78	; 0x4e
 8001abc:	210a      	movs	r1, #10
 8001abe:	204b      	movs	r0, #75	; 0x4b
 8001ac0:	f000 ffc0 	bl	8002a44 <OLED_ShowChar>
			 OLED_ShowChar(75,20,'N',12,1);
 8001ac4:	2301      	movs	r3, #1
 8001ac6:	9300      	str	r3, [sp, #0]
 8001ac8:	230c      	movs	r3, #12
 8001aca:	224e      	movs	r2, #78	; 0x4e
 8001acc:	2114      	movs	r1, #20
 8001ace:	204b      	movs	r0, #75	; 0x4b
 8001ad0:	f000 ffb8 	bl	8002a44 <OLED_ShowChar>
			 OLED_ShowChar(75,30,'Y',12,1);
 8001ad4:	2301      	movs	r3, #1
 8001ad6:	9300      	str	r3, [sp, #0]
 8001ad8:	230c      	movs	r3, #12
 8001ada:	2259      	movs	r2, #89	; 0x59
 8001adc:	211e      	movs	r1, #30
 8001ade:	204b      	movs	r0, #75	; 0x4b
 8001ae0:	f000 ffb0 	bl	8002a44 <OLED_ShowChar>
	 	  } 
	//=============Fifth line display voltage and target location=======================//			
			OLED_ShowString(80,40,"T:");	  
 8001ae4:	4a40      	ldr	r2, [pc, #256]	; (8001be8 <oled_show+0x4dc>)
 8001ae6:	2128      	movs	r1, #40	; 0x28
 8001ae8:	2050      	movs	r0, #80	; 0x50
 8001aea:	f001 f8a7 	bl	8002c3c <OLED_ShowString>
			OLED_ShowNumber(95,40,Position_Zero,5,12) ; 
 8001aee:	4b3f      	ldr	r3, [pc, #252]	; (8001bec <oled_show+0x4e0>)
 8001af0:	681b      	ldr	r3, [r3, #0]
 8001af2:	461a      	mov	r2, r3
 8001af4:	230c      	movs	r3, #12
 8001af6:	9300      	str	r3, [sp, #0]
 8001af8:	2305      	movs	r3, #5
 8001afa:	2128      	movs	r1, #40	; 0x28
 8001afc:	205f      	movs	r0, #95	; 0x5f
 8001afe:	f001 f82f 	bl	8002b60 <OLED_ShowNumber>
			                    OLED_ShowString(00,40,"VOL:");
 8001b02:	4a3b      	ldr	r2, [pc, #236]	; (8001bf0 <oled_show+0x4e4>)
 8001b04:	2128      	movs	r1, #40	; 0x28
 8001b06:	2000      	movs	r0, #0
 8001b08:	f001 f898 	bl	8002c3c <OLED_ShowString>
		                      OLED_ShowString(41,40,".");
 8001b0c:	4a39      	ldr	r2, [pc, #228]	; (8001bf4 <oled_show+0x4e8>)
 8001b0e:	2128      	movs	r1, #40	; 0x28
 8001b10:	2029      	movs	r0, #41	; 0x29
 8001b12:	f001 f893 	bl	8002c3c <OLED_ShowString>
		                      OLED_ShowString(63,40,"V");
 8001b16:	4a38      	ldr	r2, [pc, #224]	; (8001bf8 <oled_show+0x4ec>)
 8001b18:	2128      	movs	r1, #40	; 0x28
 8001b1a:	203f      	movs	r0, #63	; 0x3f
 8001b1c:	f001 f88e 	bl	8002c3c <OLED_ShowString>
		                      OLED_ShowNumber(28,40,Voltage/100,2,12);
 8001b20:	4b36      	ldr	r3, [pc, #216]	; (8001bfc <oled_show+0x4f0>)
 8001b22:	681b      	ldr	r3, [r3, #0]
 8001b24:	4a36      	ldr	r2, [pc, #216]	; (8001c00 <oled_show+0x4f4>)
 8001b26:	fb82 1203 	smull	r1, r2, r2, r3
 8001b2a:	1152      	asrs	r2, r2, #5
 8001b2c:	17db      	asrs	r3, r3, #31
 8001b2e:	1ad3      	subs	r3, r2, r3
 8001b30:	461a      	mov	r2, r3
 8001b32:	230c      	movs	r3, #12
 8001b34:	9300      	str	r3, [sp, #0]
 8001b36:	2302      	movs	r3, #2
 8001b38:	2128      	movs	r1, #40	; 0x28
 8001b3a:	201c      	movs	r0, #28
 8001b3c:	f001 f810 	bl	8002b60 <OLED_ShowNumber>
		                      OLED_ShowNumber(51,40,Voltage%100,2,12);
 8001b40:	4b2e      	ldr	r3, [pc, #184]	; (8001bfc <oled_show+0x4f0>)
 8001b42:	681b      	ldr	r3, [r3, #0]
 8001b44:	4a2e      	ldr	r2, [pc, #184]	; (8001c00 <oled_show+0x4f4>)
 8001b46:	fb82 1203 	smull	r1, r2, r2, r3
 8001b4a:	1151      	asrs	r1, r2, #5
 8001b4c:	17da      	asrs	r2, r3, #31
 8001b4e:	1a8a      	subs	r2, r1, r2
 8001b50:	2164      	movs	r1, #100	; 0x64
 8001b52:	fb01 f202 	mul.w	r2, r1, r2
 8001b56:	1a9a      	subs	r2, r3, r2
 8001b58:	230c      	movs	r3, #12
 8001b5a:	9300      	str	r3, [sp, #0]
 8001b5c:	2302      	movs	r3, #2
 8001b5e:	2128      	movs	r1, #40	; 0x28
 8001b60:	2033      	movs	r0, #51	; 0x33
 8001b62:	f000 fffd 	bl	8002b60 <OLED_ShowNumber>
		 if(Voltage%100<10) 	OLED_ShowNumber(45,40,0,2,12);
 8001b66:	4b25      	ldr	r3, [pc, #148]	; (8001bfc <oled_show+0x4f0>)
 8001b68:	681a      	ldr	r2, [r3, #0]
 8001b6a:	4b25      	ldr	r3, [pc, #148]	; (8001c00 <oled_show+0x4f4>)
 8001b6c:	fb83 1302 	smull	r1, r3, r3, r2
 8001b70:	1159      	asrs	r1, r3, #5
 8001b72:	17d3      	asrs	r3, r2, #31
 8001b74:	1acb      	subs	r3, r1, r3
 8001b76:	2164      	movs	r1, #100	; 0x64
 8001b78:	fb01 f303 	mul.w	r3, r1, r3
 8001b7c:	1ad3      	subs	r3, r2, r3
 8001b7e:	2b09      	cmp	r3, #9
 8001b80:	dc07      	bgt.n	8001b92 <oled_show+0x486>
 8001b82:	230c      	movs	r3, #12
 8001b84:	9300      	str	r3, [sp, #0]
 8001b86:	2302      	movs	r3, #2
 8001b88:	2200      	movs	r2, #0
 8001b8a:	2128      	movs	r1, #40	; 0x28
 8001b8c:	202d      	movs	r0, #45	; 0x2d
 8001b8e:	f000 ffe7 	bl	8002b60 <OLED_ShowNumber>
		//=============Sixth row display angular displacement sensor and encoder data=======================//
		OLED_ShowString(80,50,"P:");    OLED_ShowNumber(95,50,Encoder,5,12); 
 8001b92:	4a1c      	ldr	r2, [pc, #112]	; (8001c04 <oled_show+0x4f8>)
 8001b94:	2132      	movs	r1, #50	; 0x32
 8001b96:	2050      	movs	r0, #80	; 0x50
 8001b98:	f001 f850 	bl	8002c3c <OLED_ShowString>
 8001b9c:	4b1a      	ldr	r3, [pc, #104]	; (8001c08 <oled_show+0x4fc>)
 8001b9e:	681b      	ldr	r3, [r3, #0]
 8001ba0:	461a      	mov	r2, r3
 8001ba2:	230c      	movs	r3, #12
 8001ba4:	9300      	str	r3, [sp, #0]
 8001ba6:	2305      	movs	r3, #5
 8001ba8:	2132      	movs	r1, #50	; 0x32
 8001baa:	205f      	movs	r0, #95	; 0x5f
 8001bac:	f000 ffd8 	bl	8002b60 <OLED_ShowNumber>
		OLED_ShowString(0,50,"ADC:");  OLED_ShowNumber(30,50,Angle_Balance,4,12);
 8001bb0:	4a16      	ldr	r2, [pc, #88]	; (8001c0c <oled_show+0x500>)
 8001bb2:	2132      	movs	r1, #50	; 0x32
 8001bb4:	2000      	movs	r0, #0
 8001bb6:	f001 f841 	bl	8002c3c <OLED_ShowString>
 8001bba:	4b15      	ldr	r3, [pc, #84]	; (8001c10 <oled_show+0x504>)
 8001bbc:	681b      	ldr	r3, [r3, #0]
 8001bbe:	4618      	mov	r0, r3
 8001bc0:	f7ff fa16 	bl	8000ff0 <__aeabi_f2uiz>
 8001bc4:	4602      	mov	r2, r0
 8001bc6:	230c      	movs	r3, #12
 8001bc8:	9300      	str	r3, [sp, #0]
 8001bca:	2304      	movs	r3, #4
 8001bcc:	2132      	movs	r1, #50	; 0x32
 8001bce:	201e      	movs	r0, #30
 8001bd0:	f000 ffc6 	bl	8002b60 <OLED_ShowNumber>
		//=============Refresh=======================//
		OLED_Refresh_Gram();	
 8001bd4:	f000 fe42 	bl	800285c <OLED_Refresh_Gram>
	}
 8001bd8:	bf00      	nop
 8001bda:	46bd      	mov	sp, r7
 8001bdc:	bd80      	pop	{r7, pc}
 8001bde:	bf00      	nop
 8001be0:	20000018 	.word	0x20000018
 8001be4:	40400000 	.word	0x40400000
 8001be8:	0800352c 	.word	0x0800352c
 8001bec:	20000004 	.word	0x20000004
 8001bf0:	08003530 	.word	0x08003530
 8001bf4:	0800350c 	.word	0x0800350c
 8001bf8:	08003538 	.word	0x08003538
 8001bfc:	200004c8 	.word	0x200004c8
 8001c00:	51eb851f 	.word	0x51eb851f
 8001c04:	0800353c 	.word	0x0800353c
 8001c08:	200004cc 	.word	0x200004cc
 8001c0c:	08003540 	.word	0x08003540
 8001c10:	200004d4 	.word	0x200004d4

08001c14 <DataScope>:
Function: The virtual oscilloscope sends data to the host computer. Close the display.
Entry parameters: none
Return Value: None
**************************************************************************/
void DataScope(void)
{   
 8001c14:	b580      	push	{r7, lr}
 8001c16:	af00      	add	r7, sp, #0
		DataScope_Get_Channel_Data( Angle_Balance, 1 );      
 8001c18:	4b1f      	ldr	r3, [pc, #124]	; (8001c98 <DataScope+0x84>)
 8001c1a:	681b      	ldr	r3, [r3, #0]
 8001c1c:	2101      	movs	r1, #1
 8001c1e:	4618      	mov	r0, r3
 8001c20:	f7ff fc96 	bl	8001550 <DataScope_Get_Channel_Data>
		DataScope_Get_Channel_Data( Encoder, 2 );         
 8001c24:	4b1d      	ldr	r3, [pc, #116]	; (8001c9c <DataScope+0x88>)
 8001c26:	681b      	ldr	r3, [r3, #0]
 8001c28:	4618      	mov	r0, r3
 8001c2a:	f7fe ffa1 	bl	8000b70 <__aeabi_i2f>
 8001c2e:	4603      	mov	r3, r0
 8001c30:	2102      	movs	r1, #2
 8001c32:	4618      	mov	r0, r3
 8001c34:	f7ff fc8c 	bl	8001550 <DataScope_Get_Channel_Data>
		DataScope_Get_Channel_Data( 0, 3 );              
 8001c38:	2103      	movs	r1, #3
 8001c3a:	f04f 0000 	mov.w	r0, #0
 8001c3e:	f7ff fc87 	bl	8001550 <DataScope_Get_Channel_Data>
//		DataScope_Get_Channel_Data(0 , 6 );//Just replace 0 with the data you want to display.
//		DataScope_Get_Channel_Data(0, 7 );
//		DataScope_Get_Channel_Data( 0, 8 ); 
//		DataScope_Get_Channel_Data(0, 9 );  
//		DataScope_Get_Channel_Data( 0 , 10);
		Send_Count = DataScope_Data_Generate(3);
 8001c42:	2003      	movs	r0, #3
 8001c44:	f7ff fcf8 	bl	8001638 <DataScope_Data_Generate>
 8001c48:	4603      	mov	r3, r0
 8001c4a:	461a      	mov	r2, r3
 8001c4c:	4b14      	ldr	r3, [pc, #80]	; (8001ca0 <DataScope+0x8c>)
 8001c4e:	701a      	strb	r2, [r3, #0]
		for( i = 0 ; i < Send_Count; i++) 
 8001c50:	4b14      	ldr	r3, [pc, #80]	; (8001ca4 <DataScope+0x90>)
 8001c52:	2200      	movs	r2, #0
 8001c54:	701a      	strb	r2, [r3, #0]
 8001c56:	e015      	b.n	8001c84 <DataScope+0x70>
		{
		while((USART1->SR&0X40)==0);  
 8001c58:	bf00      	nop
 8001c5a:	4b13      	ldr	r3, [pc, #76]	; (8001ca8 <DataScope+0x94>)
 8001c5c:	881b      	ldrh	r3, [r3, #0]
 8001c5e:	b29b      	uxth	r3, r3
 8001c60:	f003 0340 	and.w	r3, r3, #64	; 0x40
 8001c64:	2b00      	cmp	r3, #0
 8001c66:	d0f8      	beq.n	8001c5a <DataScope+0x46>
		USART1->DR = DataScope_OutPut_Buffer[i]; 
 8001c68:	4b0e      	ldr	r3, [pc, #56]	; (8001ca4 <DataScope+0x90>)
 8001c6a:	781b      	ldrb	r3, [r3, #0]
 8001c6c:	461a      	mov	r2, r3
 8001c6e:	4b0f      	ldr	r3, [pc, #60]	; (8001cac <DataScope+0x98>)
 8001c70:	5c9a      	ldrb	r2, [r3, r2]
 8001c72:	4b0d      	ldr	r3, [pc, #52]	; (8001ca8 <DataScope+0x94>)
 8001c74:	b292      	uxth	r2, r2
 8001c76:	809a      	strh	r2, [r3, #4]
		for( i = 0 ; i < Send_Count; i++) 
 8001c78:	4b0a      	ldr	r3, [pc, #40]	; (8001ca4 <DataScope+0x90>)
 8001c7a:	781b      	ldrb	r3, [r3, #0]
 8001c7c:	3301      	adds	r3, #1
 8001c7e:	b2da      	uxtb	r2, r3
 8001c80:	4b08      	ldr	r3, [pc, #32]	; (8001ca4 <DataScope+0x90>)
 8001c82:	701a      	strb	r2, [r3, #0]
 8001c84:	4b07      	ldr	r3, [pc, #28]	; (8001ca4 <DataScope+0x90>)
 8001c86:	781a      	ldrb	r2, [r3, #0]
 8001c88:	4b05      	ldr	r3, [pc, #20]	; (8001ca0 <DataScope+0x8c>)
 8001c8a:	781b      	ldrb	r3, [r3, #0]
 8001c8c:	429a      	cmp	r2, r3
 8001c8e:	d3e3      	bcc.n	8001c58 <DataScope+0x44>
		}
}
 8001c90:	bf00      	nop
 8001c92:	bf00      	nop
 8001c94:	bd80      	pop	{r7, pc}
 8001c96:	bf00      	nop
 8001c98:	200004d4 	.word	0x200004d4
 8001c9c:	200004cc 	.word	0x200004cc
 8001ca0:	200000c2 	.word	0x200000c2
 8001ca4:	200000c1 	.word	0x200000c1
 8001ca8:	40013800 	.word	0x40013800
 8001cac:	20000074 	.word	0x20000074

08001cb0 <Baterry_Adc_Init>:
Function: ADC initializes battery voltage detection
Entry parameters: None
Return value: None
**************************************************************************/
void  Baterry_Adc_Init(void)
{    
 8001cb0:	b480      	push	{r7}
 8001cb2:	af00      	add	r7, sp, #0
  //Initialize IO port first.
 	RCC->APB2ENR|=1<<2;    //Enable PORTA clock 
 8001cb4:	4b4a      	ldr	r3, [pc, #296]	; (8001de0 <Baterry_Adc_Init+0x130>)
 8001cb6:	699b      	ldr	r3, [r3, #24]
 8001cb8:	4a49      	ldr	r2, [pc, #292]	; (8001de0 <Baterry_Adc_Init+0x130>)
 8001cba:	f043 0304 	orr.w	r3, r3, #4
 8001cbe:	6193      	str	r3, [r2, #24]
	GPIOA->CRL&=0XF0FFFFFF;//pa6 anolog
 8001cc0:	4b48      	ldr	r3, [pc, #288]	; (8001de4 <Baterry_Adc_Init+0x134>)
 8001cc2:	681b      	ldr	r3, [r3, #0]
 8001cc4:	4a47      	ldr	r2, [pc, #284]	; (8001de4 <Baterry_Adc_Init+0x134>)
 8001cc6:	f023 6370 	bic.w	r3, r3, #251658240	; 0xf000000
 8001cca:	6013      	str	r3, [r2, #0]
	RCC->APB2ENR|=1<<9;    //ADC1 clock enable
 8001ccc:	4b44      	ldr	r3, [pc, #272]	; (8001de0 <Baterry_Adc_Init+0x130>)
 8001cce:	699b      	ldr	r3, [r3, #24]
 8001cd0:	4a43      	ldr	r2, [pc, #268]	; (8001de0 <Baterry_Adc_Init+0x130>)
 8001cd2:	f443 7300 	orr.w	r3, r3, #512	; 0x200
 8001cd6:	6193      	str	r3, [r2, #24]
	RCC->APB2RSTR|=1<<9;   //ADC1 reduction
 8001cd8:	4b41      	ldr	r3, [pc, #260]	; (8001de0 <Baterry_Adc_Init+0x130>)
 8001cda:	68db      	ldr	r3, [r3, #12]
 8001cdc:	4a40      	ldr	r2, [pc, #256]	; (8001de0 <Baterry_Adc_Init+0x130>)
 8001cde:	f443 7300 	orr.w	r3, r3, #512	; 0x200
 8001ce2:	60d3      	str	r3, [r2, #12]
	RCC->APB2RSTR&=~(1<<9);//Resetting end	    
 8001ce4:	4b3e      	ldr	r3, [pc, #248]	; (8001de0 <Baterry_Adc_Init+0x130>)
 8001ce6:	68db      	ldr	r3, [r3, #12]
 8001ce8:	4a3d      	ldr	r2, [pc, #244]	; (8001de0 <Baterry_Adc_Init+0x130>)
 8001cea:	f423 7300 	bic.w	r3, r3, #512	; 0x200
 8001cee:	60d3      	str	r3, [r2, #12]
	RCC->CFGR&=~(3<<14);   //Zero frequency factor clearing
 8001cf0:	4b3b      	ldr	r3, [pc, #236]	; (8001de0 <Baterry_Adc_Init+0x130>)
 8001cf2:	685b      	ldr	r3, [r3, #4]
 8001cf4:	4a3a      	ldr	r2, [pc, #232]	; (8001de0 <Baterry_Adc_Init+0x130>)
 8001cf6:	f423 4340 	bic.w	r3, r3, #49152	; 0xc000
 8001cfa:	6053      	str	r3, [r2, #4]
//SYSCLK/DIV2=12M ADC clock set to 12M, ADC maximum clock can not exceed 14M!
// otherwise, the accuracy of ADC will be reduced.
	RCC->CFGR|=2<<14;      	 
 8001cfc:	4b38      	ldr	r3, [pc, #224]	; (8001de0 <Baterry_Adc_Init+0x130>)
 8001cfe:	685b      	ldr	r3, [r3, #4]
 8001d00:	4a37      	ldr	r2, [pc, #220]	; (8001de0 <Baterry_Adc_Init+0x130>)
 8001d02:	f443 4300 	orr.w	r3, r3, #32768	; 0x8000
 8001d06:	6053      	str	r3, [r2, #4]
	ADC1->CR1&=0XF0FFFF;   //Zero working mode
 8001d08:	4b37      	ldr	r3, [pc, #220]	; (8001de8 <Baterry_Adc_Init+0x138>)
 8001d0a:	685b      	ldr	r3, [r3, #4]
 8001d0c:	4a36      	ldr	r2, [pc, #216]	; (8001de8 <Baterry_Adc_Init+0x138>)
 8001d0e:	f023 437f 	bic.w	r3, r3, #4278190080	; 0xff000000
 8001d12:	f423 2370 	bic.w	r3, r3, #983040	; 0xf0000
 8001d16:	6053      	str	r3, [r2, #4]
	ADC1->CR1|=0<<16;      //Independent working mode  
 8001d18:	4b33      	ldr	r3, [pc, #204]	; (8001de8 <Baterry_Adc_Init+0x138>)
 8001d1a:	4a33      	ldr	r2, [pc, #204]	; (8001de8 <Baterry_Adc_Init+0x138>)
 8001d1c:	685b      	ldr	r3, [r3, #4]
 8001d1e:	6053      	str	r3, [r2, #4]
	ADC1->CR1&=~(1<<8);    //Non scanning mode	  
 8001d20:	4b31      	ldr	r3, [pc, #196]	; (8001de8 <Baterry_Adc_Init+0x138>)
 8001d22:	685b      	ldr	r3, [r3, #4]
 8001d24:	4a30      	ldr	r2, [pc, #192]	; (8001de8 <Baterry_Adc_Init+0x138>)
 8001d26:	f423 7380 	bic.w	r3, r3, #256	; 0x100
 8001d2a:	6053      	str	r3, [r2, #4]
	ADC1->CR2&=~(1<<1);    //Single conversion mode
 8001d2c:	4b2e      	ldr	r3, [pc, #184]	; (8001de8 <Baterry_Adc_Init+0x138>)
 8001d2e:	689b      	ldr	r3, [r3, #8]
 8001d30:	4a2d      	ldr	r2, [pc, #180]	; (8001de8 <Baterry_Adc_Init+0x138>)
 8001d32:	f023 0302 	bic.w	r3, r3, #2
 8001d36:	6093      	str	r3, [r2, #8]
	ADC1->CR2&=~(7<<17);	   
 8001d38:	4b2b      	ldr	r3, [pc, #172]	; (8001de8 <Baterry_Adc_Init+0x138>)
 8001d3a:	689b      	ldr	r3, [r3, #8]
 8001d3c:	4a2a      	ldr	r2, [pc, #168]	; (8001de8 <Baterry_Adc_Init+0x138>)
 8001d3e:	f423 2360 	bic.w	r3, r3, #917504	; 0xe0000
 8001d42:	6093      	str	r3, [r2, #8]
	ADC1->CR2|=7<<17;	   //Software control conversion
 8001d44:	4b28      	ldr	r3, [pc, #160]	; (8001de8 <Baterry_Adc_Init+0x138>)
 8001d46:	689b      	ldr	r3, [r3, #8]
 8001d48:	4a27      	ldr	r2, [pc, #156]	; (8001de8 <Baterry_Adc_Init+0x138>)
 8001d4a:	f443 2360 	orr.w	r3, r3, #917504	; 0xe0000
 8001d4e:	6093      	str	r3, [r2, #8]
	ADC1->CR2|=1<<20;      //Using external triggers (SWSTART)!!! Must be triggered by an event.
 8001d50:	4b25      	ldr	r3, [pc, #148]	; (8001de8 <Baterry_Adc_Init+0x138>)
 8001d52:	689b      	ldr	r3, [r3, #8]
 8001d54:	4a24      	ldr	r2, [pc, #144]	; (8001de8 <Baterry_Adc_Init+0x138>)
 8001d56:	f443 1380 	orr.w	r3, r3, #1048576	; 0x100000
 8001d5a:	6093      	str	r3, [r2, #8]
	ADC1->CR2&=~(1<<11);   //Right alignment	 
 8001d5c:	4b22      	ldr	r3, [pc, #136]	; (8001de8 <Baterry_Adc_Init+0x138>)
 8001d5e:	689b      	ldr	r3, [r3, #8]
 8001d60:	4a21      	ldr	r2, [pc, #132]	; (8001de8 <Baterry_Adc_Init+0x138>)
 8001d62:	f423 6300 	bic.w	r3, r3, #2048	; 0x800
 8001d66:	6093      	str	r3, [r2, #8]
	ADC1->SQR1&=~(0XF<<20);
 8001d68:	4b1f      	ldr	r3, [pc, #124]	; (8001de8 <Baterry_Adc_Init+0x138>)
 8001d6a:	6adb      	ldr	r3, [r3, #44]	; 0x2c
 8001d6c:	4a1e      	ldr	r2, [pc, #120]	; (8001de8 <Baterry_Adc_Init+0x138>)
 8001d6e:	f423 0370 	bic.w	r3, r3, #15728640	; 0xf00000
 8001d72:	62d3      	str	r3, [r2, #44]	; 0x2c
	ADC1->SQR1&=0<<20;     //The 1 transformation is in the rule sequence, that is to transform only the rule sequence 1. 			   
 8001d74:	4b1c      	ldr	r3, [pc, #112]	; (8001de8 <Baterry_Adc_Init+0x138>)
 8001d76:	6adb      	ldr	r3, [r3, #44]	; 0x2c
 8001d78:	4b1b      	ldr	r3, [pc, #108]	; (8001de8 <Baterry_Adc_Init+0x138>)
 8001d7a:	2200      	movs	r2, #0
 8001d7c:	62da      	str	r2, [r3, #44]	; 0x2c
// set the sampling time of channel 6.
	ADC1->SMPR2&=0XF0FFFFFF; //Sampling time emptied	  
 8001d7e:	4b1a      	ldr	r3, [pc, #104]	; (8001de8 <Baterry_Adc_Init+0x138>)
 8001d80:	691b      	ldr	r3, [r3, #16]
 8001d82:	4a19      	ldr	r2, [pc, #100]	; (8001de8 <Baterry_Adc_Init+0x138>)
 8001d84:	f023 6370 	bic.w	r3, r3, #251658240	; 0xf000000
 8001d88:	6113      	str	r3, [r2, #16]
	ADC1->SMPR2|=7<<18;      // 239.5 Cycle, increasing sampling time can improve accuracy.	 
 8001d8a:	4b17      	ldr	r3, [pc, #92]	; (8001de8 <Baterry_Adc_Init+0x138>)
 8001d8c:	691b      	ldr	r3, [r3, #16]
 8001d8e:	4a16      	ldr	r2, [pc, #88]	; (8001de8 <Baterry_Adc_Init+0x138>)
 8001d90:	f443 13e0 	orr.w	r3, r3, #1835008	; 0x1c0000
 8001d94:	6113      	str	r3, [r2, #16]

	ADC1->CR2|=1<<0;	    //Turn on AD converter	 
 8001d96:	4b14      	ldr	r3, [pc, #80]	; (8001de8 <Baterry_Adc_Init+0x138>)
 8001d98:	689b      	ldr	r3, [r3, #8]
 8001d9a:	4a13      	ldr	r2, [pc, #76]	; (8001de8 <Baterry_Adc_Init+0x138>)
 8001d9c:	f043 0301 	orr.w	r3, r3, #1
 8001da0:	6093      	str	r3, [r2, #8]
	ADC1->CR2|=1<<3;        //Enable reset calibration 
 8001da2:	4b11      	ldr	r3, [pc, #68]	; (8001de8 <Baterry_Adc_Init+0x138>)
 8001da4:	689b      	ldr	r3, [r3, #8]
 8001da6:	4a10      	ldr	r2, [pc, #64]	; (8001de8 <Baterry_Adc_Init+0x138>)
 8001da8:	f043 0308 	orr.w	r3, r3, #8
 8001dac:	6093      	str	r3, [r2, #8]
	while(ADC1->CR2&1<<3);  //Waiting for calibration to end			 
 8001dae:	bf00      	nop
 8001db0:	4b0d      	ldr	r3, [pc, #52]	; (8001de8 <Baterry_Adc_Init+0x138>)
 8001db2:	689b      	ldr	r3, [r3, #8]
 8001db4:	f003 0308 	and.w	r3, r3, #8
 8001db8:	2b00      	cmp	r3, #0
 8001dba:	d1f9      	bne.n	8001db0 <Baterry_Adc_Init+0x100>
// this bit is set up by software and cleared by hardware. The bit will be cleared after the calibration register is initialized.
	ADC1->CR2|=1<<2;        //Open AD calibration	   
 8001dbc:	4b0a      	ldr	r3, [pc, #40]	; (8001de8 <Baterry_Adc_Init+0x138>)
 8001dbe:	689b      	ldr	r3, [r3, #8]
 8001dc0:	4a09      	ldr	r2, [pc, #36]	; (8001de8 <Baterry_Adc_Init+0x138>)
 8001dc2:	f043 0304 	orr.w	r3, r3, #4
 8001dc6:	6093      	str	r3, [r2, #8]
	while(ADC1->CR2&1<<2);  //Waiting for calibration to end
 8001dc8:	bf00      	nop
 8001dca:	4b07      	ldr	r3, [pc, #28]	; (8001de8 <Baterry_Adc_Init+0x138>)
 8001dcc:	689b      	ldr	r3, [r3, #8]
 8001dce:	f003 0304 	and.w	r3, r3, #4
 8001dd2:	2b00      	cmp	r3, #0
 8001dd4:	d1f9      	bne.n	8001dca <Baterry_Adc_Init+0x11a>
}		
 8001dd6:	bf00      	nop
 8001dd8:	bf00      	nop
 8001dda:	46bd      	mov	sp, r7
 8001ddc:	bc80      	pop	{r7}
 8001dde:	4770      	bx	lr
 8001de0:	40021000 	.word	0x40021000
 8001de4:	40010800 	.word	0x40010800
 8001de8:	40012400 	.word	0x40012400

08001dec <Get_Adc>:
Function: AD sampling
Entry parameters: ADC1 channel
Return value: AD conversion result
**************************************************************************/
u16 Get_Adc(u8 ch)   
{
 8001dec:	b480      	push	{r7}
 8001dee:	b083      	sub	sp, #12
 8001df0:	af00      	add	r7, sp, #0
 8001df2:	4603      	mov	r3, r0
 8001df4:	71fb      	strb	r3, [r7, #7]
	// set conversion sequence		 
	ADC1->SQR3&=0XFFFFFFE0;//Regular sequence 1 channel Ch
 8001df6:	4b10      	ldr	r3, [pc, #64]	; (8001e38 <Get_Adc+0x4c>)
 8001df8:	6b5b      	ldr	r3, [r3, #52]	; 0x34
 8001dfa:	4a0f      	ldr	r2, [pc, #60]	; (8001e38 <Get_Adc+0x4c>)
 8001dfc:	f023 031f 	bic.w	r3, r3, #31
 8001e00:	6353      	str	r3, [r2, #52]	; 0x34
	ADC1->SQR3|=ch;		  			    
 8001e02:	4b0d      	ldr	r3, [pc, #52]	; (8001e38 <Get_Adc+0x4c>)
 8001e04:	6b5a      	ldr	r2, [r3, #52]	; 0x34
 8001e06:	79fb      	ldrb	r3, [r7, #7]
 8001e08:	490b      	ldr	r1, [pc, #44]	; (8001e38 <Get_Adc+0x4c>)
 8001e0a:	4313      	orrs	r3, r2
 8001e0c:	634b      	str	r3, [r1, #52]	; 0x34
	ADC1->CR2|=1<<22;       //Start rule conversion channel 
 8001e0e:	4b0a      	ldr	r3, [pc, #40]	; (8001e38 <Get_Adc+0x4c>)
 8001e10:	689b      	ldr	r3, [r3, #8]
 8001e12:	4a09      	ldr	r2, [pc, #36]	; (8001e38 <Get_Adc+0x4c>)
 8001e14:	f443 0380 	orr.w	r3, r3, #4194304	; 0x400000
 8001e18:	6093      	str	r3, [r2, #8]
	while(!(ADC1->SR&1<<1));//Wait for conversion end   
 8001e1a:	bf00      	nop
 8001e1c:	4b06      	ldr	r3, [pc, #24]	; (8001e38 <Get_Adc+0x4c>)
 8001e1e:	681b      	ldr	r3, [r3, #0]
 8001e20:	f003 0302 	and.w	r3, r3, #2
 8001e24:	2b00      	cmp	r3, #0
 8001e26:	d0f9      	beq.n	8001e1c <Get_Adc+0x30>
	return ADC1->DR;		//Return the ADC value	
 8001e28:	4b03      	ldr	r3, [pc, #12]	; (8001e38 <Get_Adc+0x4c>)
 8001e2a:	6cdb      	ldr	r3, [r3, #76]	; 0x4c
 8001e2c:	b29b      	uxth	r3, r3
}
 8001e2e:	4618      	mov	r0, r3
 8001e30:	370c      	adds	r7, #12
 8001e32:	46bd      	mov	sp, r7
 8001e34:	bc80      	pop	{r7}
 8001e36:	4770      	bx	lr
 8001e38:	40012400 	.word	0x40012400
 8001e3c:	00000000 	.word	0x00000000

08001e40 <Get_battery_volt>:
Function: read battery voltage
Entry parameters: None
Return value: battery voltage unit MV
**************************************************************************/
int Get_battery_volt(void)   
{  
 8001e40:	b580      	push	{r7, lr}
 8001e42:	b082      	sub	sp, #8
 8001e44:	af00      	add	r7, sp, #0
	int Volt;                                       //Battery voltage
	Volt=Get_Adc(Battery_Ch)*3.3*11*100/1.0/4096;		 //Resistance divider can be obtained based on simple analysis of schematic diagram.
 8001e46:	2006      	movs	r0, #6
 8001e48:	f7ff ffd0 	bl	8001dec <Get_Adc>
 8001e4c:	4603      	mov	r3, r0
 8001e4e:	4618      	mov	r0, r3
 8001e50:	f7fe fae0 	bl	8000414 <__aeabi_i2d>
 8001e54:	a316      	add	r3, pc, #88	; (adr r3, 8001eb0 <Get_battery_volt+0x70>)
 8001e56:	e9d3 2300 	ldrd	r2, r3, [r3]
 8001e5a:	f7fe fb45 	bl	80004e8 <__aeabi_dmul>
 8001e5e:	4602      	mov	r2, r0
 8001e60:	460b      	mov	r3, r1
 8001e62:	4610      	mov	r0, r2
 8001e64:	4619      	mov	r1, r3
 8001e66:	f04f 0200 	mov.w	r2, #0
 8001e6a:	4b13      	ldr	r3, [pc, #76]	; (8001eb8 <Get_battery_volt+0x78>)
 8001e6c:	f7fe fb3c 	bl	80004e8 <__aeabi_dmul>
 8001e70:	4602      	mov	r2, r0
 8001e72:	460b      	mov	r3, r1
 8001e74:	4610      	mov	r0, r2
 8001e76:	4619      	mov	r1, r3
 8001e78:	f04f 0200 	mov.w	r2, #0
 8001e7c:	4b0f      	ldr	r3, [pc, #60]	; (8001ebc <Get_battery_volt+0x7c>)
 8001e7e:	f7fe fb33 	bl	80004e8 <__aeabi_dmul>
 8001e82:	4602      	mov	r2, r0
 8001e84:	460b      	mov	r3, r1
 8001e86:	4610      	mov	r0, r2
 8001e88:	4619      	mov	r1, r3
 8001e8a:	f04f 0200 	mov.w	r2, #0
 8001e8e:	4b0c      	ldr	r3, [pc, #48]	; (8001ec0 <Get_battery_volt+0x80>)
 8001e90:	f7fe fc54 	bl	800073c <__aeabi_ddiv>
 8001e94:	4602      	mov	r2, r0
 8001e96:	460b      	mov	r3, r1
 8001e98:	4610      	mov	r0, r2
 8001e9a:	4619      	mov	r1, r3
 8001e9c:	f7fe fd36 	bl	800090c <__aeabi_d2iz>
 8001ea0:	4603      	mov	r3, r0
 8001ea2:	607b      	str	r3, [r7, #4]
	return Volt;
 8001ea4:	687b      	ldr	r3, [r7, #4]
}
 8001ea6:	4618      	mov	r0, r3
 8001ea8:	3708      	adds	r7, #8
 8001eaa:	46bd      	mov	sp, r7
 8001eac:	bd80      	pop	{r7, pc}
 8001eae:	bf00      	nop
 8001eb0:	66666666 	.word	0x66666666
 8001eb4:	400a6666 	.word	0x400a6666
 8001eb8:	40260000 	.word	0x40260000
 8001ebc:	40590000 	.word	0x40590000
 8001ec0:	40b00000 	.word	0x40b00000

08001ec4 <Angle_Adc_Init>:
Function function: angular displacement sensor initialization
Entry parameters: None
Return value: None
**************************************************************************/
void  Angle_Adc_Init(void)
{    
 8001ec4:	b580      	push	{r7, lr}
 8001ec6:	af00      	add	r7, sp, #0
// first, initialize IO port.
 	RCC->APB2ENR|=1<<2;    //Enable PORTA clock 
 8001ec8:	4b4a      	ldr	r3, [pc, #296]	; (8001ff4 <Angle_Adc_Init+0x130>)
 8001eca:	699b      	ldr	r3, [r3, #24]
 8001ecc:	4a49      	ldr	r2, [pc, #292]	; (8001ff4 <Angle_Adc_Init+0x130>)
 8001ece:	f043 0304 	orr.w	r3, r3, #4
 8001ed2:	6193      	str	r3, [r2, #24]
	GPIOA->CRL&=0XFFFF0FFF;//PA3 anolog input 	 		 
 8001ed4:	4b48      	ldr	r3, [pc, #288]	; (8001ff8 <Angle_Adc_Init+0x134>)
 8001ed6:	681b      	ldr	r3, [r3, #0]
 8001ed8:	4a47      	ldr	r2, [pc, #284]	; (8001ff8 <Angle_Adc_Init+0x134>)
 8001eda:	f423 4370 	bic.w	r3, r3, #61440	; 0xf000
 8001ede:	6013      	str	r3, [r2, #0]
	RCC->APB2ENR|=1<<9;    //ADC1 Clock enable	  
 8001ee0:	4b44      	ldr	r3, [pc, #272]	; (8001ff4 <Angle_Adc_Init+0x130>)
 8001ee2:	699b      	ldr	r3, [r3, #24]
 8001ee4:	4a43      	ldr	r2, [pc, #268]	; (8001ff4 <Angle_Adc_Init+0x130>)
 8001ee6:	f443 7300 	orr.w	r3, r3, #512	; 0x200
 8001eea:	6193      	str	r3, [r2, #24]
	RCC->APB2RSTR|=1<<9;   //ADC1 reset
 8001eec:	4b41      	ldr	r3, [pc, #260]	; (8001ff4 <Angle_Adc_Init+0x130>)
 8001eee:	68db      	ldr	r3, [r3, #12]
 8001ef0:	4a40      	ldr	r2, [pc, #256]	; (8001ff4 <Angle_Adc_Init+0x130>)
 8001ef2:	f443 7300 	orr.w	r3, r3, #512	; 0x200
 8001ef6:	60d3      	str	r3, [r2, #12]
	RCC->APB2RSTR&=~(1<<9);//Resetting end	    
 8001ef8:	4b3e      	ldr	r3, [pc, #248]	; (8001ff4 <Angle_Adc_Init+0x130>)
 8001efa:	68db      	ldr	r3, [r3, #12]
 8001efc:	4a3d      	ldr	r2, [pc, #244]	; (8001ff4 <Angle_Adc_Init+0x130>)
 8001efe:	f423 7300 	bic.w	r3, r3, #512	; 0x200
 8001f02:	60d3      	str	r3, [r2, #12]
	RCC->CFGR&=~(3<<14);   //Zero frequency factor clearing	
 8001f04:	4b3b      	ldr	r3, [pc, #236]	; (8001ff4 <Angle_Adc_Init+0x130>)
 8001f06:	685b      	ldr	r3, [r3, #4]
 8001f08:	4a3a      	ldr	r2, [pc, #232]	; (8001ff4 <Angle_Adc_Init+0x130>)
 8001f0a:	f423 4340 	bic.w	r3, r3, #49152	; 0xc000
 8001f0e:	6053      	str	r3, [r2, #4]
//SYSCLK/DIV2=12M ADC clock set to 12M, ADC maximum clock can not exceed 14M!
// otherwise, the accuracy of ADC will be reduced.
	RCC->CFGR|=2<<14;      	 
 8001f10:	4b38      	ldr	r3, [pc, #224]	; (8001ff4 <Angle_Adc_Init+0x130>)
 8001f12:	685b      	ldr	r3, [r3, #4]
 8001f14:	4a37      	ldr	r2, [pc, #220]	; (8001ff4 <Angle_Adc_Init+0x130>)
 8001f16:	f443 4300 	orr.w	r3, r3, #32768	; 0x8000
 8001f1a:	6053      	str	r3, [r2, #4]

	ADC1->CR1&=0XF0FFFF;   //Zero working mode
 8001f1c:	4b37      	ldr	r3, [pc, #220]	; (8001ffc <Angle_Adc_Init+0x138>)
 8001f1e:	685b      	ldr	r3, [r3, #4]
 8001f20:	4a36      	ldr	r2, [pc, #216]	; (8001ffc <Angle_Adc_Init+0x138>)
 8001f22:	f023 437f 	bic.w	r3, r3, #4278190080	; 0xff000000
 8001f26:	f423 2370 	bic.w	r3, r3, #983040	; 0xf0000
 8001f2a:	6053      	str	r3, [r2, #4]
	ADC1->CR1|=0<<16;      //Independent working mode
 8001f2c:	4b33      	ldr	r3, [pc, #204]	; (8001ffc <Angle_Adc_Init+0x138>)
 8001f2e:	4a33      	ldr	r2, [pc, #204]	; (8001ffc <Angle_Adc_Init+0x138>)
 8001f30:	685b      	ldr	r3, [r3, #4]
 8001f32:	6053      	str	r3, [r2, #4]
	ADC1->CR1&=~(1<<8);    //Non scanning mode 
 8001f34:	4b31      	ldr	r3, [pc, #196]	; (8001ffc <Angle_Adc_Init+0x138>)
 8001f36:	685b      	ldr	r3, [r3, #4]
 8001f38:	4a30      	ldr	r2, [pc, #192]	; (8001ffc <Angle_Adc_Init+0x138>)
 8001f3a:	f423 7380 	bic.w	r3, r3, #256	; 0x100
 8001f3e:	6053      	str	r3, [r2, #4]
	ADC1->CR2&=~(1<<1);    //Single conversion mode
 8001f40:	4b2e      	ldr	r3, [pc, #184]	; (8001ffc <Angle_Adc_Init+0x138>)
 8001f42:	689b      	ldr	r3, [r3, #8]
 8001f44:	4a2d      	ldr	r2, [pc, #180]	; (8001ffc <Angle_Adc_Init+0x138>)
 8001f46:	f023 0302 	bic.w	r3, r3, #2
 8001f4a:	6093      	str	r3, [r2, #8]
	ADC1->CR2&=~(7<<17);	   
 8001f4c:	4b2b      	ldr	r3, [pc, #172]	; (8001ffc <Angle_Adc_Init+0x138>)
 8001f4e:	689b      	ldr	r3, [r3, #8]
 8001f50:	4a2a      	ldr	r2, [pc, #168]	; (8001ffc <Angle_Adc_Init+0x138>)
 8001f52:	f423 2360 	bic.w	r3, r3, #917504	; 0xe0000
 8001f56:	6093      	str	r3, [r2, #8]
	ADC1->CR2|=7<<17;	   //Software control conversion  
 8001f58:	4b28      	ldr	r3, [pc, #160]	; (8001ffc <Angle_Adc_Init+0x138>)
 8001f5a:	689b      	ldr	r3, [r3, #8]
 8001f5c:	4a27      	ldr	r2, [pc, #156]	; (8001ffc <Angle_Adc_Init+0x138>)
 8001f5e:	f443 2360 	orr.w	r3, r3, #917504	; 0xe0000
 8001f62:	6093      	str	r3, [r2, #8]
	ADC1->CR2|=1<<20;      //Using external triggers (SWSTART)!!! Must be triggered by an event.
 8001f64:	4b25      	ldr	r3, [pc, #148]	; (8001ffc <Angle_Adc_Init+0x138>)
 8001f66:	689b      	ldr	r3, [r3, #8]
 8001f68:	4a24      	ldr	r2, [pc, #144]	; (8001ffc <Angle_Adc_Init+0x138>)
 8001f6a:	f443 1380 	orr.w	r3, r3, #1048576	; 0x100000
 8001f6e:	6093      	str	r3, [r2, #8]
	ADC1->CR2&=~(1<<11);   //Right alignment	 
 8001f70:	4b22      	ldr	r3, [pc, #136]	; (8001ffc <Angle_Adc_Init+0x138>)
 8001f72:	689b      	ldr	r3, [r3, #8]
 8001f74:	4a21      	ldr	r2, [pc, #132]	; (8001ffc <Angle_Adc_Init+0x138>)
 8001f76:	f423 6300 	bic.w	r3, r3, #2048	; 0x800
 8001f7a:	6093      	str	r3, [r2, #8]
	ADC1->SQR1&=~(0XF<<20);
 8001f7c:	4b1f      	ldr	r3, [pc, #124]	; (8001ffc <Angle_Adc_Init+0x138>)
 8001f7e:	6adb      	ldr	r3, [r3, #44]	; 0x2c
 8001f80:	4a1e      	ldr	r2, [pc, #120]	; (8001ffc <Angle_Adc_Init+0x138>)
 8001f82:	f423 0370 	bic.w	r3, r3, #15728640	; 0xf00000
 8001f86:	62d3      	str	r3, [r2, #44]	; 0x2c
	ADC1->SQR1&=0<<20;     //The 1 transformation is in the rule sequence, that is to transform only the rule sequence 1.	   
 8001f88:	4b1c      	ldr	r3, [pc, #112]	; (8001ffc <Angle_Adc_Init+0x138>)
 8001f8a:	6adb      	ldr	r3, [r3, #44]	; 0x2c
 8001f8c:	4b1b      	ldr	r3, [pc, #108]	; (8001ffc <Angle_Adc_Init+0x138>)
 8001f8e:	2200      	movs	r2, #0
 8001f90:	62da      	str	r2, [r3, #44]	; 0x2c
	//Set the sampling time of channel 7.
	ADC1->SMPR2&=0XFFFF0FFF;//Channel sampling time emptied  
 8001f92:	4b1a      	ldr	r3, [pc, #104]	; (8001ffc <Angle_Adc_Init+0x138>)
 8001f94:	691b      	ldr	r3, [r3, #16]
 8001f96:	4a19      	ldr	r2, [pc, #100]	; (8001ffc <Angle_Adc_Init+0x138>)
 8001f98:	f423 4370 	bic.w	r3, r3, #61440	; 0xf000
 8001f9c:	6113      	str	r3, [r2, #16]
	ADC1->SMPR2|=7<<9;      //Channel 239.5 cycle, increasing sampling time can improve accuracy.
 8001f9e:	4b17      	ldr	r3, [pc, #92]	; (8001ffc <Angle_Adc_Init+0x138>)
 8001fa0:	691b      	ldr	r3, [r3, #16]
 8001fa2:	4a16      	ldr	r2, [pc, #88]	; (8001ffc <Angle_Adc_Init+0x138>)
 8001fa4:	f443 6360 	orr.w	r3, r3, #3584	; 0xe00
 8001fa8:	6113      	str	r3, [r2, #16]

	ADC1->CR2|=1<<0;	    //Turn on AD converter
 8001faa:	4b14      	ldr	r3, [pc, #80]	; (8001ffc <Angle_Adc_Init+0x138>)
 8001fac:	689b      	ldr	r3, [r3, #8]
 8001fae:	4a13      	ldr	r2, [pc, #76]	; (8001ffc <Angle_Adc_Init+0x138>)
 8001fb0:	f043 0301 	orr.w	r3, r3, #1
 8001fb4:	6093      	str	r3, [r2, #8]
	ADC1->CR2|=1<<3;        //Enable reset calibration  
 8001fb6:	4b11      	ldr	r3, [pc, #68]	; (8001ffc <Angle_Adc_Init+0x138>)
 8001fb8:	689b      	ldr	r3, [r3, #8]
 8001fba:	4a10      	ldr	r2, [pc, #64]	; (8001ffc <Angle_Adc_Init+0x138>)
 8001fbc:	f043 0308 	orr.w	r3, r3, #8
 8001fc0:	6093      	str	r3, [r2, #8]
	while(ADC1->CR2&1<<3);  //Waiting for calibration to end 			 
 8001fc2:	bf00      	nop
 8001fc4:	4b0d      	ldr	r3, [pc, #52]	; (8001ffc <Angle_Adc_Init+0x138>)
 8001fc6:	689b      	ldr	r3, [r3, #8]
 8001fc8:	f003 0308 	and.w	r3, r3, #8
 8001fcc:	2b00      	cmp	r3, #0
 8001fce:	d1f9      	bne.n	8001fc4 <Angle_Adc_Init+0x100>
  // this bit is set up by software and cleared by hardware. The bit will be cleared after the calibration register is initialized.	 
	ADC1->CR2|=1<<2;        //Open AD calibration   
 8001fd0:	4b0a      	ldr	r3, [pc, #40]	; (8001ffc <Angle_Adc_Init+0x138>)
 8001fd2:	689b      	ldr	r3, [r3, #8]
 8001fd4:	4a09      	ldr	r2, [pc, #36]	; (8001ffc <Angle_Adc_Init+0x138>)
 8001fd6:	f043 0304 	orr.w	r3, r3, #4
 8001fda:	6093      	str	r3, [r2, #8]
	while(ADC1->CR2&1<<2);  //Waiting for calibration to end
 8001fdc:	bf00      	nop
 8001fde:	4b07      	ldr	r3, [pc, #28]	; (8001ffc <Angle_Adc_Init+0x138>)
 8001fe0:	689b      	ldr	r3, [r3, #8]
 8001fe2:	f003 0304 	and.w	r3, r3, #4
 8001fe6:	2b00      	cmp	r3, #0
 8001fe8:	d1f9      	bne.n	8001fde <Angle_Adc_Init+0x11a>
	delay_ms(1);
 8001fea:	2001      	movs	r0, #1
 8001fec:	f000 ff8c 	bl	8002f08 <delay_ms>
}		
 8001ff0:	bf00      	nop
 8001ff2:	bd80      	pop	{r7, pc}
 8001ff4:	40021000 	.word	0x40021000
 8001ff8:	40010800 	.word	0x40010800
 8001ffc:	40012400 	.word	0x40012400

08002000 <Get_Adc_Average>:
// get the conversion value of channel ch, take times times, and then average.
//ch: channel number
//times: acquisition times
// return value: average value of times conversion result of channel ch.
u16 Get_Adc_Average(u8 ch,u8 times)
{
 8002000:	b580      	push	{r7, lr}
 8002002:	b084      	sub	sp, #16
 8002004:	af00      	add	r7, sp, #0
 8002006:	4603      	mov	r3, r0
 8002008:	460a      	mov	r2, r1
 800200a:	71fb      	strb	r3, [r7, #7]
 800200c:	4613      	mov	r3, r2
 800200e:	71bb      	strb	r3, [r7, #6]
	u32 temp_val=0;
 8002010:	2300      	movs	r3, #0
 8002012:	60fb      	str	r3, [r7, #12]
	u8 t;
	for(t=0;t<times;t++)
 8002014:	2300      	movs	r3, #0
 8002016:	72fb      	strb	r3, [r7, #11]
 8002018:	e00e      	b.n	8002038 <Get_Adc_Average+0x38>
	{
		temp_val+=Get_Adc(ch);
 800201a:	79fb      	ldrb	r3, [r7, #7]
 800201c:	4618      	mov	r0, r3
 800201e:	f7ff fee5 	bl	8001dec <Get_Adc>
 8002022:	4603      	mov	r3, r0
 8002024:	461a      	mov	r2, r3
 8002026:	68fb      	ldr	r3, [r7, #12]
 8002028:	4413      	add	r3, r2
 800202a:	60fb      	str	r3, [r7, #12]
		delay_us(200);
 800202c:	20c8      	movs	r0, #200	; 0xc8
 800202e:	f000 ff3d 	bl	8002eac <delay_us>
	for(t=0;t<times;t++)
 8002032:	7afb      	ldrb	r3, [r7, #11]
 8002034:	3301      	adds	r3, #1
 8002036:	72fb      	strb	r3, [r7, #11]
 8002038:	7afa      	ldrb	r2, [r7, #11]
 800203a:	79bb      	ldrb	r3, [r7, #6]
 800203c:	429a      	cmp	r2, r3
 800203e:	d3ec      	bcc.n	800201a <Get_Adc_Average+0x1a>
	}
	return temp_val/times;
 8002040:	79bb      	ldrb	r3, [r7, #6]
 8002042:	68fa      	ldr	r2, [r7, #12]
 8002044:	fbb2 f3f3 	udiv	r3, r2, r3
 8002048:	b29b      	uxth	r3, r3
} 
 800204a:	4618      	mov	r0, r3
 800204c:	3710      	adds	r7, #16
 800204e:	46bd      	mov	sp, r7
 8002050:	bd80      	pop	{r7, pc}
	...

08002054 <Encoder_Init_TIM4>:
Function: initialize TIM4 to encoder interface mode.
Entry parameters: None
Return value: None
**************************************************************************/
void Encoder_Init_TIM4(void)
{
 8002054:	b580      	push	{r7, lr}
 8002056:	af00      	add	r7, sp, #0
	RCC->APB1ENR|=1<<2;     //TIM4 clock enable
 8002058:	4b41      	ldr	r3, [pc, #260]	; (8002160 <Encoder_Init_TIM4+0x10c>)
 800205a:	69db      	ldr	r3, [r3, #28]
 800205c:	4a40      	ldr	r2, [pc, #256]	; (8002160 <Encoder_Init_TIM4+0x10c>)
 800205e:	f043 0304 	orr.w	r3, r3, #4
 8002062:	61d3      	str	r3, [r2, #28]
	RCC->APB2ENR|=1<<3;     //Enable PORTB clock
 8002064:	4b3e      	ldr	r3, [pc, #248]	; (8002160 <Encoder_Init_TIM4+0x10c>)
 8002066:	699b      	ldr	r3, [r3, #24]
 8002068:	4a3d      	ldr	r2, [pc, #244]	; (8002160 <Encoder_Init_TIM4+0x10c>)
 800206a:	f043 0308 	orr.w	r3, r3, #8
 800206e:	6193      	str	r3, [r2, #24]
	GPIOB->CRL&=0X00FFFFFF; //PB6 PB7
 8002070:	4b3c      	ldr	r3, [pc, #240]	; (8002164 <Encoder_Init_TIM4+0x110>)
 8002072:	681b      	ldr	r3, [r3, #0]
 8002074:	4a3b      	ldr	r2, [pc, #236]	; (8002164 <Encoder_Init_TIM4+0x110>)
 8002076:	f023 437f 	bic.w	r3, r3, #4278190080	; 0xff000000
 800207a:	6013      	str	r3, [r2, #0]
	GPIOB->CRL|=0X44000000; //Floating space input
 800207c:	4b39      	ldr	r3, [pc, #228]	; (8002164 <Encoder_Init_TIM4+0x110>)
 800207e:	681b      	ldr	r3, [r3, #0]
 8002080:	4a38      	ldr	r2, [pc, #224]	; (8002164 <Encoder_Init_TIM4+0x110>)
 8002082:	f043 4388 	orr.w	r3, r3, #1140850688	; 0x44000000
 8002086:	6013      	str	r3, [r2, #0]
//	TIM4->CNT=10000;
//	TIM4->CR1 |= 0x01;            //CEN=1Enabling timer
	
		/* Enable the TIM3 Update Interrupt */
	//These two items must be installed at the same time before they can be interrupted.
	TIM4->DIER|=1<<0;   //Enable update interrupt			
 8002088:	4b37      	ldr	r3, [pc, #220]	; (8002168 <Encoder_Init_TIM4+0x114>)
 800208a:	899b      	ldrh	r3, [r3, #12]
 800208c:	b29b      	uxth	r3, r3
 800208e:	4a36      	ldr	r2, [pc, #216]	; (8002168 <Encoder_Init_TIM4+0x114>)
 8002090:	f043 0301 	orr.w	r3, r3, #1
 8002094:	b29b      	uxth	r3, r3
 8002096:	8193      	strh	r3, [r2, #12]
	TIM4->DIER|=1<<6;   //Enable triggered interrupt
 8002098:	4b33      	ldr	r3, [pc, #204]	; (8002168 <Encoder_Init_TIM4+0x114>)
 800209a:	899b      	ldrh	r3, [r3, #12]
 800209c:	b29b      	uxth	r3, r3
 800209e:	4a32      	ldr	r2, [pc, #200]	; (8002168 <Encoder_Init_TIM4+0x114>)
 80020a0:	f043 0340 	orr.w	r3, r3, #64	; 0x40
 80020a4:	b29b      	uxth	r3, r3
 80020a6:	8193      	strh	r3, [r2, #12]
	MY_NVIC_Init(1,3,TIM4_IRQn,1);
 80020a8:	2301      	movs	r3, #1
 80020aa:	221e      	movs	r2, #30
 80020ac:	2103      	movs	r1, #3
 80020ae:	2001      	movs	r0, #1
 80020b0:	f000 ff9a 	bl	8002fe8 <MY_NVIC_Init>

	/* Timer configuration in Encoder mode */ 
	TIM4->PSC = 0x0;//
 80020b4:	4b2c      	ldr	r3, [pc, #176]	; (8002168 <Encoder_Init_TIM4+0x114>)
 80020b6:	2200      	movs	r2, #0
 80020b8:	851a      	strh	r2, [r3, #40]	; 0x28
	TIM4->ARR = ENCODER_TIM_PERIOD;//Setting counter automatic reload value
 80020ba:	4b2b      	ldr	r3, [pc, #172]	; (8002168 <Encoder_Init_TIM4+0x114>)
 80020bc:	f64f 72ff 	movw	r2, #65535	; 0xffff
 80020c0:	859a      	strh	r2, [r3, #44]	; 0x2c
	TIM4->CR1 &=~(3<<8);// Select clock divider: no frequency division.
 80020c2:	4b29      	ldr	r3, [pc, #164]	; (8002168 <Encoder_Init_TIM4+0x114>)
 80020c4:	881b      	ldrh	r3, [r3, #0]
 80020c6:	b29b      	uxth	r3, r3
 80020c8:	4a27      	ldr	r2, [pc, #156]	; (8002168 <Encoder_Init_TIM4+0x114>)
 80020ca:	f423 7340 	bic.w	r3, r3, #768	; 0x300
 80020ce:	b29b      	uxth	r3, r3
 80020d0:	8013      	strh	r3, [r2, #0]
	TIM4->CR1 &=~(3<<5);// Select counting mode: edge alignment mode.
 80020d2:	4b25      	ldr	r3, [pc, #148]	; (8002168 <Encoder_Init_TIM4+0x114>)
 80020d4:	881b      	ldrh	r3, [r3, #0]
 80020d6:	b29b      	uxth	r3, r3
 80020d8:	4a23      	ldr	r2, [pc, #140]	; (8002168 <Encoder_Init_TIM4+0x114>)
 80020da:	f023 0360 	bic.w	r3, r3, #96	; 0x60
 80020de:	b29b      	uxth	r3, r3
 80020e0:	8013      	strh	r3, [r2, #0]
		
	TIM4->CCMR1 |= 1<<0; //CC1S='01' IC1FP1 Mapping to TI1
 80020e2:	4b21      	ldr	r3, [pc, #132]	; (8002168 <Encoder_Init_TIM4+0x114>)
 80020e4:	8b1b      	ldrh	r3, [r3, #24]
 80020e6:	b29b      	uxth	r3, r3
 80020e8:	4a1f      	ldr	r2, [pc, #124]	; (8002168 <Encoder_Init_TIM4+0x114>)
 80020ea:	f043 0301 	orr.w	r3, r3, #1
 80020ee:	b29b      	uxth	r3, r3
 80020f0:	8313      	strh	r3, [r2, #24]
	TIM4->CCMR1 |= 1<<8; //CC2S='01' IC2FP2 Mapping to TI2
 80020f2:	4b1d      	ldr	r3, [pc, #116]	; (8002168 <Encoder_Init_TIM4+0x114>)
 80020f4:	8b1b      	ldrh	r3, [r3, #24]
 80020f6:	b29b      	uxth	r3, r3
 80020f8:	4a1b      	ldr	r2, [pc, #108]	; (8002168 <Encoder_Init_TIM4+0x114>)
 80020fa:	f443 7380 	orr.w	r3, r3, #256	; 0x100
 80020fe:	b29b      	uxth	r3, r3
 8002100:	8313      	strh	r3, [r2, #24]
	TIM4->CCER &= ~(1<<1);	 //CC1P='0'	 IC1FP1 Not oppositeIC1FP1=TI1
 8002102:	4b19      	ldr	r3, [pc, #100]	; (8002168 <Encoder_Init_TIM4+0x114>)
 8002104:	8c1b      	ldrh	r3, [r3, #32]
 8002106:	b29b      	uxth	r3, r3
 8002108:	4a17      	ldr	r2, [pc, #92]	; (8002168 <Encoder_Init_TIM4+0x114>)
 800210a:	f023 0302 	bic.w	r3, r3, #2
 800210e:	b29b      	uxth	r3, r3
 8002110:	8413      	strh	r3, [r2, #32]
	TIM4->CCER &= ~(1<<5);	 //CC2P='0'	 IC2FP2 Not oppositeIC2FP2=TI2
 8002112:	4b15      	ldr	r3, [pc, #84]	; (8002168 <Encoder_Init_TIM4+0x114>)
 8002114:	8c1b      	ldrh	r3, [r3, #32]
 8002116:	b29b      	uxth	r3, r3
 8002118:	4a13      	ldr	r2, [pc, #76]	; (8002168 <Encoder_Init_TIM4+0x114>)
 800211a:	f023 0320 	bic.w	r3, r3, #32
 800211e:	b29b      	uxth	r3, r3
 8002120:	8413      	strh	r3, [r2, #32]
	TIM4->CCMR1 |= 3<<4; //	IC1F='1000' Input capture 1 filter
 8002122:	4b11      	ldr	r3, [pc, #68]	; (8002168 <Encoder_Init_TIM4+0x114>)
 8002124:	8b1b      	ldrh	r3, [r3, #24]
 8002126:	b29b      	uxth	r3, r3
 8002128:	4a0f      	ldr	r2, [pc, #60]	; (8002168 <Encoder_Init_TIM4+0x114>)
 800212a:	f043 0330 	orr.w	r3, r3, #48	; 0x30
 800212e:	b29b      	uxth	r3, r3
 8002130:	8313      	strh	r3, [r2, #24]
	TIM4->SMCR |= 3<<0;	 //SMS='011' All inputs are valid on the rising and falling edges.
 8002132:	4b0d      	ldr	r3, [pc, #52]	; (8002168 <Encoder_Init_TIM4+0x114>)
 8002134:	891b      	ldrh	r3, [r3, #8]
 8002136:	b29b      	uxth	r3, r3
 8002138:	4a0b      	ldr	r2, [pc, #44]	; (8002168 <Encoder_Init_TIM4+0x114>)
 800213a:	f043 0303 	orr.w	r3, r3, #3
 800213e:	b29b      	uxth	r3, r3
 8002140:	8113      	strh	r3, [r2, #8]
	TIM4->CNT = 10000;
 8002142:	4b09      	ldr	r3, [pc, #36]	; (8002168 <Encoder_Init_TIM4+0x114>)
 8002144:	f242 7210 	movw	r2, #10000	; 0x2710
 8002148:	849a      	strh	r2, [r3, #36]	; 0x24
	TIM4->CR1 |= 0x01;    //CEN=1Enabling timer
 800214a:	4b07      	ldr	r3, [pc, #28]	; (8002168 <Encoder_Init_TIM4+0x114>)
 800214c:	881b      	ldrh	r3, [r3, #0]
 800214e:	b29b      	uxth	r3, r3
 8002150:	4a05      	ldr	r2, [pc, #20]	; (8002168 <Encoder_Init_TIM4+0x114>)
 8002152:	f043 0301 	orr.w	r3, r3, #1
 8002156:	b29b      	uxth	r3, r3
 8002158:	8013      	strh	r3, [r2, #0]
}
 800215a:	bf00      	nop
 800215c:	bd80      	pop	{r7, pc}
 800215e:	bf00      	nop
 8002160:	40021000 	.word	0x40021000
 8002164:	40010c00 	.word	0x40010c00
 8002168:	40000800 	.word	0x40000800

0800216c <Read_Encoder>:
Function: unit time read encoder count
Entry parameters: timer
Return value: speed value
**************************************************************************/
int Read_Encoder(u8 TIMX)
{
 800216c:	b480      	push	{r7}
 800216e:	b085      	sub	sp, #20
 8002170:	af00      	add	r7, sp, #0
 8002172:	4603      	mov	r3, r0
 8002174:	71fb      	strb	r3, [r7, #7]
    int Encoder_TIM;    
   switch(TIMX)
 8002176:	79fb      	ldrb	r3, [r7, #7]
 8002178:	2b04      	cmp	r3, #4
 800217a:	d016      	beq.n	80021aa <Read_Encoder+0x3e>
 800217c:	2b04      	cmp	r3, #4
 800217e:	dc1a      	bgt.n	80021b6 <Read_Encoder+0x4a>
 8002180:	2b02      	cmp	r3, #2
 8002182:	d002      	beq.n	800218a <Read_Encoder+0x1e>
 8002184:	2b03      	cmp	r3, #3
 8002186:	d007      	beq.n	8002198 <Read_Encoder+0x2c>
 8002188:	e015      	b.n	80021b6 <Read_Encoder+0x4a>
	 {
	   case 2:  Encoder_TIM= (short)TIM2 -> CNT; break;
 800218a:	f04f 4380 	mov.w	r3, #1073741824	; 0x40000000
 800218e:	8c9b      	ldrh	r3, [r3, #36]	; 0x24
 8002190:	b29b      	uxth	r3, r3
 8002192:	b21b      	sxth	r3, r3
 8002194:	60fb      	str	r3, [r7, #12]
 8002196:	e010      	b.n	80021ba <Read_Encoder+0x4e>
		 case 3:  Encoder_TIM= (short)TIM3 -> CNT;  TIM3 -> CNT=0;break;	
 8002198:	4b0b      	ldr	r3, [pc, #44]	; (80021c8 <Read_Encoder+0x5c>)
 800219a:	8c9b      	ldrh	r3, [r3, #36]	; 0x24
 800219c:	b29b      	uxth	r3, r3
 800219e:	b21b      	sxth	r3, r3
 80021a0:	60fb      	str	r3, [r7, #12]
 80021a2:	4b09      	ldr	r3, [pc, #36]	; (80021c8 <Read_Encoder+0x5c>)
 80021a4:	2200      	movs	r2, #0
 80021a6:	849a      	strh	r2, [r3, #36]	; 0x24
 80021a8:	e007      	b.n	80021ba <Read_Encoder+0x4e>
		 case 4:  Encoder_TIM= (short)TIM4 -> CNT; break;	
 80021aa:	4b08      	ldr	r3, [pc, #32]	; (80021cc <Read_Encoder+0x60>)
 80021ac:	8c9b      	ldrh	r3, [r3, #36]	; 0x24
 80021ae:	b29b      	uxth	r3, r3
 80021b0:	b21b      	sxth	r3, r3
 80021b2:	60fb      	str	r3, [r7, #12]
 80021b4:	e001      	b.n	80021ba <Read_Encoder+0x4e>
		 default:  Encoder_TIM=0;
 80021b6:	2300      	movs	r3, #0
 80021b8:	60fb      	str	r3, [r7, #12]
	 }
		return Encoder_TIM;
 80021ba:	68fb      	ldr	r3, [r7, #12]
}
 80021bc:	4618      	mov	r0, r3
 80021be:	3714      	adds	r7, #20
 80021c0:	46bd      	mov	sp, r7
 80021c2:	bc80      	pop	{r7}
 80021c4:	4770      	bx	lr
 80021c6:	bf00      	nop
 80021c8:	40000400 	.word	0x40000400
 80021cc:	40000800 	.word	0x40000800

080021d0 <TIM4_IRQHandler>:

void TIM4_IRQHandler(void)
{ 		    		  			    
 80021d0:	b480      	push	{r7}
 80021d2:	af00      	add	r7, sp, #0
	if(TIM4->SR&0X0001)//Spillover interruption
 80021d4:	4b06      	ldr	r3, [pc, #24]	; (80021f0 <TIM4_IRQHandler+0x20>)
 80021d6:	8a1b      	ldrh	r3, [r3, #16]
	{
			    				   				     	    	
	}				   
	TIM4->SR&=~(1<<0);//Clear interrupt flag bit	    
 80021d8:	4b05      	ldr	r3, [pc, #20]	; (80021f0 <TIM4_IRQHandler+0x20>)
 80021da:	8a1b      	ldrh	r3, [r3, #16]
 80021dc:	b29b      	uxth	r3, r3
 80021de:	4a04      	ldr	r2, [pc, #16]	; (80021f0 <TIM4_IRQHandler+0x20>)
 80021e0:	f023 0301 	bic.w	r3, r3, #1
 80021e4:	b29b      	uxth	r3, r3
 80021e6:	8213      	strh	r3, [r2, #16]
}
 80021e8:	bf00      	nop
 80021ea:	46bd      	mov	sp, r7
 80021ec:	bc80      	pop	{r7}
 80021ee:	4770      	bx	lr
 80021f0:	40000800 	.word	0x40000800

080021f4 <TIM2_IRQHandler>:
void TIM2_IRQHandler(void)
{ 		    		  			    
 80021f4:	b480      	push	{r7}
 80021f6:	af00      	add	r7, sp, #0
	if(TIM2->SR&0X0001)//Spillover interruption
 80021f8:	f04f 4380 	mov.w	r3, #1073741824	; 0x40000000
 80021fc:	8a1b      	ldrh	r3, [r3, #16]
	{
			    				   				     	    	
	}				   
	TIM2->SR&=~(1<<0);//Clear interrupt flag bit   
 80021fe:	f04f 4380 	mov.w	r3, #1073741824	; 0x40000000
 8002202:	8a1b      	ldrh	r3, [r3, #16]
 8002204:	b29b      	uxth	r3, r3
 8002206:	f04f 4280 	mov.w	r2, #1073741824	; 0x40000000
 800220a:	f023 0301 	bic.w	r3, r3, #1
 800220e:	b29b      	uxth	r3, r3
 8002210:	8213      	strh	r3, [r2, #16]
}
 8002212:	bf00      	nop
 8002214:	46bd      	mov	sp, r7
 8002216:	bc80      	pop	{r7}
 8002218:	4770      	bx	lr

0800221a <EXTI_Init>:
Function: external interrupt initialization
Entry parameters: None
Return value: None
**************************************************************************/
void EXTI_Init(void)
{
 800221a:	b580      	push	{r7, lr}
 800221c:	af00      	add	r7, sp, #0
	KEY_Init();	
 800221e:	f000 f981 	bl	8002524 <KEY_Init>
	Ex_NVIC_Config(GPIO_A,7,FTIR);		//Falling edge trigger
 8002222:	2201      	movs	r2, #1
 8002224:	2107      	movs	r1, #7
 8002226:	2000      	movs	r0, #0
 8002228:	f000 ff30 	bl	800308c <Ex_NVIC_Config>
	Ex_NVIC_Config(GPIO_A,5,FTIR);		//Falling edge trigger
 800222c:	2201      	movs	r2, #1
 800222e:	2105      	movs	r1, #5
 8002230:	2000      	movs	r0, #0
 8002232:	f000 ff2b 	bl	800308c <Ex_NVIC_Config>
	Ex_NVIC_Config(GPIO_A,11,FTIR);		//Falling edge trigger
 8002236:	2201      	movs	r2, #1
 8002238:	210b      	movs	r1, #11
 800223a:	2000      	movs	r0, #0
 800223c:	f000 ff26 	bl	800308c <Ex_NVIC_Config>
	Ex_NVIC_Config(GPIO_A,12,FTIR);		//Falling edge trigger
 8002240:	2201      	movs	r2, #1
 8002242:	210c      	movs	r1, #12
 8002244:	2000      	movs	r0, #0
 8002246:	f000 ff21 	bl	800308c <Ex_NVIC_Config>

	MY_NVIC_Init(2,2,EXTI9_5_IRQn,2);  	//Preemptive 2, sub priority 2, group 2
 800224a:	2302      	movs	r3, #2
 800224c:	2217      	movs	r2, #23
 800224e:	2102      	movs	r1, #2
 8002250:	2002      	movs	r0, #2
 8002252:	f000 fec9 	bl	8002fe8 <MY_NVIC_Init>
	MY_NVIC_Init(2,2,EXTI15_10_IRQn,2);	//Preemptive 2, sub priority 2, group 2	  
 8002256:	2302      	movs	r3, #2
 8002258:	2228      	movs	r2, #40	; 0x28
 800225a:	2102      	movs	r1, #2
 800225c:	2002      	movs	r0, #2
 800225e:	f000 fec3 	bl	8002fe8 <MY_NVIC_Init>
}
 8002262:	bf00      	nop
 8002264:	bd80      	pop	{r7, pc}
	...

08002268 <EXTI9_5_IRQHandler>:


// external interrupt 9~5 service function
void EXTI9_5_IRQHandler(void)
{			
 8002268:	b598      	push	{r3, r4, r7, lr}
 800226a:	af00      	add	r7, sp, #0
	delay_ms(5);   //Shake off			 
 800226c:	2005      	movs	r0, #5
 800226e:	f000 fe4b 	bl	8002f08 <delay_ms>
   if(KEY5==0)	// 
 8002272:	4b18      	ldr	r3, [pc, #96]	; (80022d4 <EXTI9_5_IRQHandler+0x6c>)
 8002274:	681b      	ldr	r3, [r3, #0]
 8002276:	2b00      	cmp	r3, #0
 8002278:	d109      	bne.n	800228e <EXTI9_5_IRQHandler+0x26>
	{
		Flag_Stop=!Flag_Stop;
 800227a:	4b17      	ldr	r3, [pc, #92]	; (80022d8 <EXTI9_5_IRQHandler+0x70>)
 800227c:	781b      	ldrb	r3, [r3, #0]
 800227e:	2b00      	cmp	r3, #0
 8002280:	bf0c      	ite	eq
 8002282:	2301      	moveq	r3, #1
 8002284:	2300      	movne	r3, #0
 8002286:	b2db      	uxtb	r3, r3
 8002288:	461a      	mov	r2, r3
 800228a:	4b13      	ldr	r3, [pc, #76]	; (80022d8 <EXTI9_5_IRQHandler+0x70>)
 800228c:	701a      	strb	r2, [r3, #0]

	}		
	if(KEY7==0)	///Menu 
 800228e:	4b13      	ldr	r3, [pc, #76]	; (80022dc <EXTI9_5_IRQHandler+0x74>)
 8002290:	681b      	ldr	r3, [r3, #0]
 8002292:	2b00      	cmp	r3, #0
 8002294:	d116      	bne.n	80022c4 <EXTI9_5_IRQHandler+0x5c>
	{
		if(Menu++==4) Menu=1;
 8002296:	4b12      	ldr	r3, [pc, #72]	; (80022e0 <EXTI9_5_IRQHandler+0x78>)
 8002298:	681c      	ldr	r4, [r3, #0]
 800229a:	f04f 517e 	mov.w	r1, #1065353216	; 0x3f800000
 800229e:	4620      	mov	r0, r4
 80022a0:	f7fe fbb2 	bl	8000a08 <__addsf3>
 80022a4:	4603      	mov	r3, r0
 80022a6:	461a      	mov	r2, r3
 80022a8:	4b0d      	ldr	r3, [pc, #52]	; (80022e0 <EXTI9_5_IRQHandler+0x78>)
 80022aa:	601a      	str	r2, [r3, #0]
 80022ac:	f04f 4181 	mov.w	r1, #1082130432	; 0x40800000
 80022b0:	4620      	mov	r0, r4
 80022b2:	f7fe fe45 	bl	8000f40 <__aeabi_fcmpeq>
 80022b6:	4603      	mov	r3, r0
 80022b8:	2b00      	cmp	r3, #0
 80022ba:	d003      	beq.n	80022c4 <EXTI9_5_IRQHandler+0x5c>
 80022bc:	4b08      	ldr	r3, [pc, #32]	; (80022e0 <EXTI9_5_IRQHandler+0x78>)
 80022be:	f04f 527e 	mov.w	r2, #1065353216	; 0x3f800000
 80022c2:	601a      	str	r2, [r3, #0]
	}		
 		EXTI->PR=1<<5;     //Clear the interrupt flag bit on LINE5.  
 80022c4:	4b07      	ldr	r3, [pc, #28]	; (80022e4 <EXTI9_5_IRQHandler+0x7c>)
 80022c6:	2220      	movs	r2, #32
 80022c8:	615a      	str	r2, [r3, #20]
		EXTI->PR=1<<7;     //Clear the interrupt flag bit on LINE7.
 80022ca:	4b06      	ldr	r3, [pc, #24]	; (80022e4 <EXTI9_5_IRQHandler+0x7c>)
 80022cc:	2280      	movs	r2, #128	; 0x80
 80022ce:	615a      	str	r2, [r3, #20]
}
 80022d0:	bf00      	nop
 80022d2:	bd98      	pop	{r3, r4, r7, pc}
 80022d4:	42210114 	.word	0x42210114
 80022d8:	20000000 	.word	0x20000000
 80022dc:	4221011c 	.word	0x4221011c
 80022e0:	20000018 	.word	0x20000018
 80022e4:	40010400 	.word	0x40010400

080022e8 <EXTI15_10_IRQHandler>:
//External interrupt 15~10 service program
void EXTI15_10_IRQHandler(void)
{			
 80022e8:	b580      	push	{r7, lr}
 80022ea:	af00      	add	r7, sp, #0
	delay_ms(5);   //Shake off			 
 80022ec:	2005      	movs	r0, #5
 80022ee:	f000 fe0b 	bl	8002f08 <delay_ms>
  if(KEY11==0)	//PID-
 80022f2:	4b7f      	ldr	r3, [pc, #508]	; (80024f0 <EXTI15_10_IRQHandler+0x208>)
 80022f4:	681b      	ldr	r3, [r3, #0]
 80022f6:	2b00      	cmp	r3, #0
 80022f8:	d159      	bne.n	80023ae <EXTI15_10_IRQHandler+0xc6>
	{
		if(Menu==1)        Balance_KP-=Amplitude1;
 80022fa:	4b7e      	ldr	r3, [pc, #504]	; (80024f4 <EXTI15_10_IRQHandler+0x20c>)
 80022fc:	681b      	ldr	r3, [r3, #0]
 80022fe:	f04f 517e 	mov.w	r1, #1065353216	; 0x3f800000
 8002302:	4618      	mov	r0, r3
 8002304:	f7fe fe1c 	bl	8000f40 <__aeabi_fcmpeq>
 8002308:	4603      	mov	r3, r0
 800230a:	2b00      	cmp	r3, #0
 800230c:	d00c      	beq.n	8002328 <EXTI15_10_IRQHandler+0x40>
 800230e:	4b7a      	ldr	r3, [pc, #488]	; (80024f8 <EXTI15_10_IRQHandler+0x210>)
 8002310:	681b      	ldr	r3, [r3, #0]
 8002312:	4a7a      	ldr	r2, [pc, #488]	; (80024fc <EXTI15_10_IRQHandler+0x214>)
 8002314:	6812      	ldr	r2, [r2, #0]
 8002316:	4611      	mov	r1, r2
 8002318:	4618      	mov	r0, r3
 800231a:	f7fe fb73 	bl	8000a04 <__aeabi_fsub>
 800231e:	4603      	mov	r3, r0
 8002320:	461a      	mov	r2, r3
 8002322:	4b75      	ldr	r3, [pc, #468]	; (80024f8 <EXTI15_10_IRQHandler+0x210>)
 8002324:	601a      	str	r2, [r3, #0]
 8002326:	e042      	b.n	80023ae <EXTI15_10_IRQHandler+0xc6>
	  else	if(Menu==2)  Balance_KD-=Amplitude2;
 8002328:	4b72      	ldr	r3, [pc, #456]	; (80024f4 <EXTI15_10_IRQHandler+0x20c>)
 800232a:	681b      	ldr	r3, [r3, #0]
 800232c:	f04f 4180 	mov.w	r1, #1073741824	; 0x40000000
 8002330:	4618      	mov	r0, r3
 8002332:	f7fe fe05 	bl	8000f40 <__aeabi_fcmpeq>
 8002336:	4603      	mov	r3, r0
 8002338:	2b00      	cmp	r3, #0
 800233a:	d00c      	beq.n	8002356 <EXTI15_10_IRQHandler+0x6e>
 800233c:	4b70      	ldr	r3, [pc, #448]	; (8002500 <EXTI15_10_IRQHandler+0x218>)
 800233e:	681b      	ldr	r3, [r3, #0]
 8002340:	4a70      	ldr	r2, [pc, #448]	; (8002504 <EXTI15_10_IRQHandler+0x21c>)
 8002342:	6812      	ldr	r2, [r2, #0]
 8002344:	4611      	mov	r1, r2
 8002346:	4618      	mov	r0, r3
 8002348:	f7fe fb5c 	bl	8000a04 <__aeabi_fsub>
 800234c:	4603      	mov	r3, r0
 800234e:	461a      	mov	r2, r3
 8002350:	4b6b      	ldr	r3, [pc, #428]	; (8002500 <EXTI15_10_IRQHandler+0x218>)
 8002352:	601a      	str	r2, [r3, #0]
 8002354:	e02b      	b.n	80023ae <EXTI15_10_IRQHandler+0xc6>
		else  if(Menu==3)  Position_KP-=Amplitude3;
 8002356:	4b67      	ldr	r3, [pc, #412]	; (80024f4 <EXTI15_10_IRQHandler+0x20c>)
 8002358:	681b      	ldr	r3, [r3, #0]
 800235a:	496b      	ldr	r1, [pc, #428]	; (8002508 <EXTI15_10_IRQHandler+0x220>)
 800235c:	4618      	mov	r0, r3
 800235e:	f7fe fdef 	bl	8000f40 <__aeabi_fcmpeq>
 8002362:	4603      	mov	r3, r0
 8002364:	2b00      	cmp	r3, #0
 8002366:	d00c      	beq.n	8002382 <EXTI15_10_IRQHandler+0x9a>
 8002368:	4b68      	ldr	r3, [pc, #416]	; (800250c <EXTI15_10_IRQHandler+0x224>)
 800236a:	681b      	ldr	r3, [r3, #0]
 800236c:	4a68      	ldr	r2, [pc, #416]	; (8002510 <EXTI15_10_IRQHandler+0x228>)
 800236e:	6812      	ldr	r2, [r2, #0]
 8002370:	4611      	mov	r1, r2
 8002372:	4618      	mov	r0, r3
 8002374:	f7fe fb46 	bl	8000a04 <__aeabi_fsub>
 8002378:	4603      	mov	r3, r0
 800237a:	461a      	mov	r2, r3
 800237c:	4b63      	ldr	r3, [pc, #396]	; (800250c <EXTI15_10_IRQHandler+0x224>)
 800237e:	601a      	str	r2, [r3, #0]
 8002380:	e015      	b.n	80023ae <EXTI15_10_IRQHandler+0xc6>
		else  if(Menu==4)  Position_KD-=Amplitude4;
 8002382:	4b5c      	ldr	r3, [pc, #368]	; (80024f4 <EXTI15_10_IRQHandler+0x20c>)
 8002384:	681b      	ldr	r3, [r3, #0]
 8002386:	f04f 4181 	mov.w	r1, #1082130432	; 0x40800000
 800238a:	4618      	mov	r0, r3
 800238c:	f7fe fdd8 	bl	8000f40 <__aeabi_fcmpeq>
 8002390:	4603      	mov	r3, r0
 8002392:	2b00      	cmp	r3, #0
 8002394:	d00b      	beq.n	80023ae <EXTI15_10_IRQHandler+0xc6>
 8002396:	4b5f      	ldr	r3, [pc, #380]	; (8002514 <EXTI15_10_IRQHandler+0x22c>)
 8002398:	681b      	ldr	r3, [r3, #0]
 800239a:	4a5f      	ldr	r2, [pc, #380]	; (8002518 <EXTI15_10_IRQHandler+0x230>)
 800239c:	6812      	ldr	r2, [r2, #0]
 800239e:	4611      	mov	r1, r2
 80023a0:	4618      	mov	r0, r3
 80023a2:	f7fe fb2f 	bl	8000a04 <__aeabi_fsub>
 80023a6:	4603      	mov	r3, r0
 80023a8:	461a      	mov	r2, r3
 80023aa:	4b5a      	ldr	r3, [pc, #360]	; (8002514 <EXTI15_10_IRQHandler+0x22c>)
 80023ac:	601a      	str	r2, [r3, #0]
	}		
	 if(KEY12==0)	//PID+ 
 80023ae:	4b5b      	ldr	r3, [pc, #364]	; (800251c <EXTI15_10_IRQHandler+0x234>)
 80023b0:	681b      	ldr	r3, [r3, #0]
 80023b2:	2b00      	cmp	r3, #0
 80023b4:	d159      	bne.n	800246a <EXTI15_10_IRQHandler+0x182>
	{
			    if(Menu==1)  Balance_KP+=Amplitude1;
 80023b6:	4b4f      	ldr	r3, [pc, #316]	; (80024f4 <EXTI15_10_IRQHandler+0x20c>)
 80023b8:	681b      	ldr	r3, [r3, #0]
 80023ba:	f04f 517e 	mov.w	r1, #1065353216	; 0x3f800000
 80023be:	4618      	mov	r0, r3
 80023c0:	f7fe fdbe 	bl	8000f40 <__aeabi_fcmpeq>
 80023c4:	4603      	mov	r3, r0
 80023c6:	2b00      	cmp	r3, #0
 80023c8:	d00c      	beq.n	80023e4 <EXTI15_10_IRQHandler+0xfc>
 80023ca:	4b4b      	ldr	r3, [pc, #300]	; (80024f8 <EXTI15_10_IRQHandler+0x210>)
 80023cc:	681b      	ldr	r3, [r3, #0]
 80023ce:	4a4b      	ldr	r2, [pc, #300]	; (80024fc <EXTI15_10_IRQHandler+0x214>)
 80023d0:	6812      	ldr	r2, [r2, #0]
 80023d2:	4611      	mov	r1, r2
 80023d4:	4618      	mov	r0, r3
 80023d6:	f7fe fb17 	bl	8000a08 <__addsf3>
 80023da:	4603      	mov	r3, r0
 80023dc:	461a      	mov	r2, r3
 80023de:	4b46      	ldr	r3, [pc, #280]	; (80024f8 <EXTI15_10_IRQHandler+0x210>)
 80023e0:	601a      	str	r2, [r3, #0]
 80023e2:	e042      	b.n	800246a <EXTI15_10_IRQHandler+0x182>
	  else	if(Menu==2)  Balance_KD+=Amplitude2;
 80023e4:	4b43      	ldr	r3, [pc, #268]	; (80024f4 <EXTI15_10_IRQHandler+0x20c>)
 80023e6:	681b      	ldr	r3, [r3, #0]
 80023e8:	f04f 4180 	mov.w	r1, #1073741824	; 0x40000000
 80023ec:	4618      	mov	r0, r3
 80023ee:	f7fe fda7 	bl	8000f40 <__aeabi_fcmpeq>
 80023f2:	4603      	mov	r3, r0
 80023f4:	2b00      	cmp	r3, #0
 80023f6:	d00c      	beq.n	8002412 <EXTI15_10_IRQHandler+0x12a>
 80023f8:	4b41      	ldr	r3, [pc, #260]	; (8002500 <EXTI15_10_IRQHandler+0x218>)
 80023fa:	681b      	ldr	r3, [r3, #0]
 80023fc:	4a41      	ldr	r2, [pc, #260]	; (8002504 <EXTI15_10_IRQHandler+0x21c>)
 80023fe:	6812      	ldr	r2, [r2, #0]
 8002400:	4611      	mov	r1, r2
 8002402:	4618      	mov	r0, r3
 8002404:	f7fe fb00 	bl	8000a08 <__addsf3>
 8002408:	4603      	mov	r3, r0
 800240a:	461a      	mov	r2, r3
 800240c:	4b3c      	ldr	r3, [pc, #240]	; (8002500 <EXTI15_10_IRQHandler+0x218>)
 800240e:	601a      	str	r2, [r3, #0]
 8002410:	e02b      	b.n	800246a <EXTI15_10_IRQHandler+0x182>
		else  if(Menu==3)  Position_KP+=Amplitude3;
 8002412:	4b38      	ldr	r3, [pc, #224]	; (80024f4 <EXTI15_10_IRQHandler+0x20c>)
 8002414:	681b      	ldr	r3, [r3, #0]
 8002416:	493c      	ldr	r1, [pc, #240]	; (8002508 <EXTI15_10_IRQHandler+0x220>)
 8002418:	4618      	mov	r0, r3
 800241a:	f7fe fd91 	bl	8000f40 <__aeabi_fcmpeq>
 800241e:	4603      	mov	r3, r0
 8002420:	2b00      	cmp	r3, #0
 8002422:	d00c      	beq.n	800243e <EXTI15_10_IRQHandler+0x156>
 8002424:	4b39      	ldr	r3, [pc, #228]	; (800250c <EXTI15_10_IRQHandler+0x224>)
 8002426:	681b      	ldr	r3, [r3, #0]
 8002428:	4a39      	ldr	r2, [pc, #228]	; (8002510 <EXTI15_10_IRQHandler+0x228>)
 800242a:	6812      	ldr	r2, [r2, #0]
 800242c:	4611      	mov	r1, r2
 800242e:	4618      	mov	r0, r3
 8002430:	f7fe faea 	bl	8000a08 <__addsf3>
 8002434:	4603      	mov	r3, r0
 8002436:	461a      	mov	r2, r3
 8002438:	4b34      	ldr	r3, [pc, #208]	; (800250c <EXTI15_10_IRQHandler+0x224>)
 800243a:	601a      	str	r2, [r3, #0]
 800243c:	e015      	b.n	800246a <EXTI15_10_IRQHandler+0x182>
		else  if(Menu==4)  Position_KD+=Amplitude4;
 800243e:	4b2d      	ldr	r3, [pc, #180]	; (80024f4 <EXTI15_10_IRQHandler+0x20c>)
 8002440:	681b      	ldr	r3, [r3, #0]
 8002442:	f04f 4181 	mov.w	r1, #1082130432	; 0x40800000
 8002446:	4618      	mov	r0, r3
 8002448:	f7fe fd7a 	bl	8000f40 <__aeabi_fcmpeq>
 800244c:	4603      	mov	r3, r0
 800244e:	2b00      	cmp	r3, #0
 8002450:	d00b      	beq.n	800246a <EXTI15_10_IRQHandler+0x182>
 8002452:	4b30      	ldr	r3, [pc, #192]	; (8002514 <EXTI15_10_IRQHandler+0x22c>)
 8002454:	681b      	ldr	r3, [r3, #0]
 8002456:	4a30      	ldr	r2, [pc, #192]	; (8002518 <EXTI15_10_IRQHandler+0x230>)
 8002458:	6812      	ldr	r2, [r2, #0]
 800245a:	4611      	mov	r1, r2
 800245c:	4618      	mov	r0, r3
 800245e:	f7fe fad3 	bl	8000a08 <__addsf3>
 8002462:	4603      	mov	r3, r0
 8002464:	461a      	mov	r2, r3
 8002466:	4b2b      	ldr	r3, [pc, #172]	; (8002514 <EXTI15_10_IRQHandler+0x22c>)
 8002468:	601a      	str	r2, [r3, #0]
	}		
	if(Balance_KP<=0) Balance_KP=0;
 800246a:	4b23      	ldr	r3, [pc, #140]	; (80024f8 <EXTI15_10_IRQHandler+0x210>)
 800246c:	681b      	ldr	r3, [r3, #0]
 800246e:	f04f 0100 	mov.w	r1, #0
 8002472:	4618      	mov	r0, r3
 8002474:	f7fe fd78 	bl	8000f68 <__aeabi_fcmple>
 8002478:	4603      	mov	r3, r0
 800247a:	2b00      	cmp	r3, #0
 800247c:	d003      	beq.n	8002486 <EXTI15_10_IRQHandler+0x19e>
 800247e:	4b1e      	ldr	r3, [pc, #120]	; (80024f8 <EXTI15_10_IRQHandler+0x210>)
 8002480:	f04f 0200 	mov.w	r2, #0
 8002484:	601a      	str	r2, [r3, #0]
	if(Balance_KD<=0) Balance_KD=0;
 8002486:	4b1e      	ldr	r3, [pc, #120]	; (8002500 <EXTI15_10_IRQHandler+0x218>)
 8002488:	681b      	ldr	r3, [r3, #0]
 800248a:	f04f 0100 	mov.w	r1, #0
 800248e:	4618      	mov	r0, r3
 8002490:	f7fe fd6a 	bl	8000f68 <__aeabi_fcmple>
 8002494:	4603      	mov	r3, r0
 8002496:	2b00      	cmp	r3, #0
 8002498:	d003      	beq.n	80024a2 <EXTI15_10_IRQHandler+0x1ba>
 800249a:	4b19      	ldr	r3, [pc, #100]	; (8002500 <EXTI15_10_IRQHandler+0x218>)
 800249c:	f04f 0200 	mov.w	r2, #0
 80024a0:	601a      	str	r2, [r3, #0]
	if(Position_KP<=0) Position_KP=0;
 80024a2:	4b1a      	ldr	r3, [pc, #104]	; (800250c <EXTI15_10_IRQHandler+0x224>)
 80024a4:	681b      	ldr	r3, [r3, #0]
 80024a6:	f04f 0100 	mov.w	r1, #0
 80024aa:	4618      	mov	r0, r3
 80024ac:	f7fe fd5c 	bl	8000f68 <__aeabi_fcmple>
 80024b0:	4603      	mov	r3, r0
 80024b2:	2b00      	cmp	r3, #0
 80024b4:	d003      	beq.n	80024be <EXTI15_10_IRQHandler+0x1d6>
 80024b6:	4b15      	ldr	r3, [pc, #84]	; (800250c <EXTI15_10_IRQHandler+0x224>)
 80024b8:	f04f 0200 	mov.w	r2, #0
 80024bc:	601a      	str	r2, [r3, #0]
	if(Position_KD<=0) Position_KD=0;
 80024be:	4b15      	ldr	r3, [pc, #84]	; (8002514 <EXTI15_10_IRQHandler+0x22c>)
 80024c0:	681b      	ldr	r3, [r3, #0]
 80024c2:	f04f 0100 	mov.w	r1, #0
 80024c6:	4618      	mov	r0, r3
 80024c8:	f7fe fd4e 	bl	8000f68 <__aeabi_fcmple>
 80024cc:	4603      	mov	r3, r0
 80024ce:	2b00      	cmp	r3, #0
 80024d0:	d003      	beq.n	80024da <EXTI15_10_IRQHandler+0x1f2>
 80024d2:	4b10      	ldr	r3, [pc, #64]	; (8002514 <EXTI15_10_IRQHandler+0x22c>)
 80024d4:	f04f 0200 	mov.w	r2, #0
 80024d8:	601a      	str	r2, [r3, #0]
  EXTI->PR=1<<11; //Clear the interrupt flag bit on LINE11.  
 80024da:	4b11      	ldr	r3, [pc, #68]	; (8002520 <EXTI15_10_IRQHandler+0x238>)
 80024dc:	f44f 6200 	mov.w	r2, #2048	; 0x800
 80024e0:	615a      	str	r2, [r3, #20]
	EXTI->PR=1<<12; //Clear the interrupt flag bit on LINE12.
 80024e2:	4b0f      	ldr	r3, [pc, #60]	; (8002520 <EXTI15_10_IRQHandler+0x238>)
 80024e4:	f44f 5280 	mov.w	r2, #4096	; 0x1000
 80024e8:	615a      	str	r2, [r3, #20]
}
 80024ea:	bf00      	nop
 80024ec:	bd80      	pop	{r7, pc}
 80024ee:	bf00      	nop
 80024f0:	4221012c 	.word	0x4221012c
 80024f4:	20000018 	.word	0x20000018
 80024f8:	20000008 	.word	0x20000008
 80024fc:	2000001c 	.word	0x2000001c
 8002500:	2000000c 	.word	0x2000000c
 8002504:	20000020 	.word	0x20000020
 8002508:	40400000 	.word	0x40400000
 800250c:	20000010 	.word	0x20000010
 8002510:	20000024 	.word	0x20000024
 8002514:	20000014 	.word	0x20000014
 8002518:	20000028 	.word	0x20000028
 800251c:	42210130 	.word	0x42210130
 8002520:	40010400 	.word	0x40010400

08002524 <KEY_Init>:
Function: initialization of keys
Entry parameters: None
Return value: None
**************************************************************************/
void KEY_Init(void)
{
 8002524:	b480      	push	{r7}
 8002526:	af00      	add	r7, sp, #0
	RCC->APB2ENR|=1<<2;    //Enable PORTA clock
 8002528:	4b1c      	ldr	r3, [pc, #112]	; (800259c <KEY_Init+0x78>)
 800252a:	699b      	ldr	r3, [r3, #24]
 800252c:	4a1b      	ldr	r2, [pc, #108]	; (800259c <KEY_Init+0x78>)
 800252e:	f043 0304 	orr.w	r3, r3, #4
 8002532:	6193      	str	r3, [r2, #24]
	GPIOA->CRH&=0XFFF00FFF; 
 8002534:	4b1a      	ldr	r3, [pc, #104]	; (80025a0 <KEY_Init+0x7c>)
 8002536:	685b      	ldr	r3, [r3, #4]
 8002538:	4a19      	ldr	r2, [pc, #100]	; (80025a0 <KEY_Init+0x7c>)
 800253a:	f423 237f 	bic.w	r3, r3, #1044480	; 0xff000
 800253e:	6053      	str	r3, [r2, #4]
	GPIOA->CRH|=0X00088000;
 8002540:	4b17      	ldr	r3, [pc, #92]	; (80025a0 <KEY_Init+0x7c>)
 8002542:	685b      	ldr	r3, [r3, #4]
 8002544:	4a16      	ldr	r2, [pc, #88]	; (80025a0 <KEY_Init+0x7c>)
 8002546:	f443 2308 	orr.w	r3, r3, #557056	; 0x88000
 800254a:	6053      	str	r3, [r2, #4]
	
	GPIOA->CRL&=0X0F0FF0FF; 
 800254c:	4b14      	ldr	r3, [pc, #80]	; (80025a0 <KEY_Init+0x7c>)
 800254e:	681a      	ldr	r2, [r3, #0]
 8002550:	4913      	ldr	r1, [pc, #76]	; (80025a0 <KEY_Init+0x7c>)
 8002552:	4b14      	ldr	r3, [pc, #80]	; (80025a4 <KEY_Init+0x80>)
 8002554:	4013      	ands	r3, r2
 8002556:	600b      	str	r3, [r1, #0]
	GPIOA->CRL|=0X80800800;
 8002558:	4b11      	ldr	r3, [pc, #68]	; (80025a0 <KEY_Init+0x7c>)
 800255a:	681a      	ldr	r2, [r3, #0]
 800255c:	4910      	ldr	r1, [pc, #64]	; (80025a0 <KEY_Init+0x7c>)
 800255e:	4b12      	ldr	r3, [pc, #72]	; (80025a8 <KEY_Init+0x84>)
 8002560:	4313      	orrs	r3, r2
 8002562:	600b      	str	r3, [r1, #0]
	
  GPIOA->ODR|=1<<2; //PA 2 Pull up
 8002564:	4b0e      	ldr	r3, [pc, #56]	; (80025a0 <KEY_Init+0x7c>)
 8002566:	68db      	ldr	r3, [r3, #12]
 8002568:	4a0d      	ldr	r2, [pc, #52]	; (80025a0 <KEY_Init+0x7c>)
 800256a:	f043 0304 	orr.w	r3, r3, #4
 800256e:	60d3      	str	r3, [r2, #12]
  GPIOA->ODR|=1<<7; //PA 7 Pull up	
 8002570:	4b0b      	ldr	r3, [pc, #44]	; (80025a0 <KEY_Init+0x7c>)
 8002572:	68db      	ldr	r3, [r3, #12]
 8002574:	4a0a      	ldr	r2, [pc, #40]	; (80025a0 <KEY_Init+0x7c>)
 8002576:	f043 0380 	orr.w	r3, r3, #128	; 0x80
 800257a:	60d3      	str	r3, [r2, #12]
  GPIOA->ODR|=1<<5; //PA5 Pull up
 800257c:	4b08      	ldr	r3, [pc, #32]	; (80025a0 <KEY_Init+0x7c>)
 800257e:	68db      	ldr	r3, [r3, #12]
 8002580:	4a07      	ldr	r2, [pc, #28]	; (80025a0 <KEY_Init+0x7c>)
 8002582:	f043 0320 	orr.w	r3, r3, #32
 8002586:	60d3      	str	r3, [r2, #12]
	GPIOA->ODR|=3<<11; //PA11 12  Pull up	
 8002588:	4b05      	ldr	r3, [pc, #20]	; (80025a0 <KEY_Init+0x7c>)
 800258a:	68db      	ldr	r3, [r3, #12]
 800258c:	4a04      	ldr	r2, [pc, #16]	; (80025a0 <KEY_Init+0x7c>)
 800258e:	f443 53c0 	orr.w	r3, r3, #6144	; 0x1800
 8002592:	60d3      	str	r3, [r2, #12]
} 
 8002594:	bf00      	nop
 8002596:	46bd      	mov	sp, r7
 8002598:	bc80      	pop	{r7}
 800259a:	4770      	bx	lr
 800259c:	40021000 	.word	0x40021000
 80025a0:	40010800 	.word	0x40010800
 80025a4:	0f0ff0ff 	.word	0x0f0ff0ff
 80025a8:	80800800 	.word	0x80800800

080025ac <click_N_Double>:
Function: key scan
Entry parameter: double click wait time.
Return value: keystroke status 0: no action 1: click 2: double click.
**************************************************************************/
u8 click_N_Double (u8 time)
{
 80025ac:	b480      	push	{r7}
 80025ae:	b083      	sub	sp, #12
 80025b0:	af00      	add	r7, sp, #0
 80025b2:	4603      	mov	r3, r0
 80025b4:	71fb      	strb	r3, [r7, #7]
		static	u8 flag_key,count_key,double_key;	
		static	u16 count_single,Forever_count;
	  if(KEY2==0)  Forever_count++;   // long mark position is not set at 1.
 80025b6:	4b38      	ldr	r3, [pc, #224]	; (8002698 <click_N_Double+0xec>)
 80025b8:	681b      	ldr	r3, [r3, #0]
 80025ba:	2b00      	cmp	r3, #0
 80025bc:	d106      	bne.n	80025cc <click_N_Double+0x20>
 80025be:	4b37      	ldr	r3, [pc, #220]	; (800269c <click_N_Double+0xf0>)
 80025c0:	881b      	ldrh	r3, [r3, #0]
 80025c2:	3301      	adds	r3, #1
 80025c4:	b29a      	uxth	r2, r3
 80025c6:	4b35      	ldr	r3, [pc, #212]	; (800269c <click_N_Double+0xf0>)
 80025c8:	801a      	strh	r2, [r3, #0]
 80025ca:	e002      	b.n	80025d2 <click_N_Double+0x26>
     else        Forever_count=0;
 80025cc:	4b33      	ldr	r3, [pc, #204]	; (800269c <click_N_Double+0xf0>)
 80025ce:	2200      	movs	r2, #0
 80025d0:	801a      	strh	r2, [r3, #0]
		if(0==KEY2&&0==flag_key)		flag_key=1;	
 80025d2:	4b31      	ldr	r3, [pc, #196]	; (8002698 <click_N_Double+0xec>)
 80025d4:	681b      	ldr	r3, [r3, #0]
 80025d6:	2b00      	cmp	r3, #0
 80025d8:	d106      	bne.n	80025e8 <click_N_Double+0x3c>
 80025da:	4b31      	ldr	r3, [pc, #196]	; (80026a0 <click_N_Double+0xf4>)
 80025dc:	781b      	ldrb	r3, [r3, #0]
 80025de:	2b00      	cmp	r3, #0
 80025e0:	d102      	bne.n	80025e8 <click_N_Double+0x3c>
 80025e2:	4b2f      	ldr	r3, [pc, #188]	; (80026a0 <click_N_Double+0xf4>)
 80025e4:	2201      	movs	r2, #1
 80025e6:	701a      	strb	r2, [r3, #0]
	  if(0==count_key)
 80025e8:	4b2e      	ldr	r3, [pc, #184]	; (80026a4 <click_N_Double+0xf8>)
 80025ea:	781b      	ldrb	r3, [r3, #0]
 80025ec:	2b00      	cmp	r3, #0
 80025ee:	d118      	bne.n	8002622 <click_N_Double+0x76>
		{
				if(flag_key==1) 
 80025f0:	4b2b      	ldr	r3, [pc, #172]	; (80026a0 <click_N_Double+0xf4>)
 80025f2:	781b      	ldrb	r3, [r3, #0]
 80025f4:	2b01      	cmp	r3, #1
 80025f6:	d108      	bne.n	800260a <click_N_Double+0x5e>
				{
					double_key++;
 80025f8:	4b2b      	ldr	r3, [pc, #172]	; (80026a8 <click_N_Double+0xfc>)
 80025fa:	781b      	ldrb	r3, [r3, #0]
 80025fc:	3301      	adds	r3, #1
 80025fe:	b2da      	uxtb	r2, r3
 8002600:	4b29      	ldr	r3, [pc, #164]	; (80026a8 <click_N_Double+0xfc>)
 8002602:	701a      	strb	r2, [r3, #0]
					count_key=1;	
 8002604:	4b27      	ldr	r3, [pc, #156]	; (80026a4 <click_N_Double+0xf8>)
 8002606:	2201      	movs	r2, #1
 8002608:	701a      	strb	r2, [r3, #0]
				}
				if(double_key==2) 
 800260a:	4b27      	ldr	r3, [pc, #156]	; (80026a8 <click_N_Double+0xfc>)
 800260c:	781b      	ldrb	r3, [r3, #0]
 800260e:	2b02      	cmp	r3, #2
 8002610:	d107      	bne.n	8002622 <click_N_Double+0x76>
				{
					double_key=0;
 8002612:	4b25      	ldr	r3, [pc, #148]	; (80026a8 <click_N_Double+0xfc>)
 8002614:	2200      	movs	r2, #0
 8002616:	701a      	strb	r2, [r3, #0]
					count_single=0;
 8002618:	4b24      	ldr	r3, [pc, #144]	; (80026ac <click_N_Double+0x100>)
 800261a:	2200      	movs	r2, #0
 800261c:	801a      	strh	r2, [r3, #0]
					return 2;//Double click the execution instruction.
 800261e:	2302      	movs	r3, #2
 8002620:	e034      	b.n	800268c <click_N_Double+0xe0>
				}
		}
		if(1==KEY2)			flag_key=0,count_key=0;
 8002622:	4b1d      	ldr	r3, [pc, #116]	; (8002698 <click_N_Double+0xec>)
 8002624:	681b      	ldr	r3, [r3, #0]
 8002626:	2b01      	cmp	r3, #1
 8002628:	d105      	bne.n	8002636 <click_N_Double+0x8a>
 800262a:	4b1d      	ldr	r3, [pc, #116]	; (80026a0 <click_N_Double+0xf4>)
 800262c:	2200      	movs	r2, #0
 800262e:	701a      	strb	r2, [r3, #0]
 8002630:	4b1c      	ldr	r3, [pc, #112]	; (80026a4 <click_N_Double+0xf8>)
 8002632:	2200      	movs	r2, #0
 8002634:	701a      	strb	r2, [r3, #0]
		
		if(1==double_key)
 8002636:	4b1c      	ldr	r3, [pc, #112]	; (80026a8 <click_N_Double+0xfc>)
 8002638:	781b      	ldrb	r3, [r3, #0]
 800263a:	2b01      	cmp	r3, #1
 800263c:	d125      	bne.n	800268a <click_N_Double+0xde>
		{
			count_single++;
 800263e:	4b1b      	ldr	r3, [pc, #108]	; (80026ac <click_N_Double+0x100>)
 8002640:	881b      	ldrh	r3, [r3, #0]
 8002642:	3301      	adds	r3, #1
 8002644:	b29a      	uxth	r2, r3
 8002646:	4b19      	ldr	r3, [pc, #100]	; (80026ac <click_N_Double+0x100>)
 8002648:	801a      	strh	r2, [r3, #0]
			if(count_single>time&&Forever_count<time)
 800264a:	79fb      	ldrb	r3, [r7, #7]
 800264c:	b29a      	uxth	r2, r3
 800264e:	4b17      	ldr	r3, [pc, #92]	; (80026ac <click_N_Double+0x100>)
 8002650:	881b      	ldrh	r3, [r3, #0]
 8002652:	429a      	cmp	r2, r3
 8002654:	d20d      	bcs.n	8002672 <click_N_Double+0xc6>
 8002656:	79fb      	ldrb	r3, [r7, #7]
 8002658:	b29a      	uxth	r2, r3
 800265a:	4b10      	ldr	r3, [pc, #64]	; (800269c <click_N_Double+0xf0>)
 800265c:	881b      	ldrh	r3, [r3, #0]
 800265e:	429a      	cmp	r2, r3
 8002660:	d907      	bls.n	8002672 <click_N_Double+0xc6>
			{
			double_key=0;
 8002662:	4b11      	ldr	r3, [pc, #68]	; (80026a8 <click_N_Double+0xfc>)
 8002664:	2200      	movs	r2, #0
 8002666:	701a      	strb	r2, [r3, #0]
			count_single=0;	
 8002668:	4b10      	ldr	r3, [pc, #64]	; (80026ac <click_N_Double+0x100>)
 800266a:	2200      	movs	r2, #0
 800266c:	801a      	strh	r2, [r3, #0]
			return 1;//Click execute instructions
 800266e:	2301      	movs	r3, #1
 8002670:	e00c      	b.n	800268c <click_N_Double+0xe0>
			}
			if(Forever_count>time)
 8002672:	79fb      	ldrb	r3, [r7, #7]
 8002674:	b29a      	uxth	r2, r3
 8002676:	4b09      	ldr	r3, [pc, #36]	; (800269c <click_N_Double+0xf0>)
 8002678:	881b      	ldrh	r3, [r3, #0]
 800267a:	429a      	cmp	r2, r3
 800267c:	d205      	bcs.n	800268a <click_N_Double+0xde>
			{
			double_key=0;
 800267e:	4b0a      	ldr	r3, [pc, #40]	; (80026a8 <click_N_Double+0xfc>)
 8002680:	2200      	movs	r2, #0
 8002682:	701a      	strb	r2, [r3, #0]
			count_single=0;	
 8002684:	4b09      	ldr	r3, [pc, #36]	; (80026ac <click_N_Double+0x100>)
 8002686:	2200      	movs	r2, #0
 8002688:	801a      	strh	r2, [r3, #0]
			}
		}	
		return 0;
 800268a:	2300      	movs	r3, #0
}
 800268c:	4618      	mov	r0, r3
 800268e:	370c      	adds	r7, #12
 8002690:	46bd      	mov	sp, r7
 8002692:	bc80      	pop	{r7}
 8002694:	4770      	bx	lr
 8002696:	bf00      	nop
 8002698:	42210108 	.word	0x42210108
 800269c:	2000009e 	.word	0x2000009e
 80026a0:	200000a0 	.word	0x200000a0
 80026a4:	200000a1 	.word	0x200000a1
 80026a8:	200000a2 	.word	0x200000a2
 80026ac:	200000a4 	.word	0x200000a4

080026b0 <LED_Init>:
Function: initialization of LED interface
Entry parameters: None
Return value: None
**************************************************************************/
void LED_Init(void)
{
 80026b0:	b480      	push	{r7}
 80026b2:	af00      	add	r7, sp, #0
RCC->APB2ENR|=1<<2;      // 
 80026b4:	4b0d      	ldr	r3, [pc, #52]	; (80026ec <LED_Init+0x3c>)
 80026b6:	699b      	ldr	r3, [r3, #24]
 80026b8:	4a0c      	ldr	r2, [pc, #48]	; (80026ec <LED_Init+0x3c>)
 80026ba:	f043 0304 	orr.w	r3, r3, #4
 80026be:	6193      	str	r3, [r2, #24]
GPIOA->CRL&=0XFFF0FFFF;
 80026c0:	4b0b      	ldr	r3, [pc, #44]	; (80026f0 <LED_Init+0x40>)
 80026c2:	681b      	ldr	r3, [r3, #0]
 80026c4:	4a0a      	ldr	r2, [pc, #40]	; (80026f0 <LED_Init+0x40>)
 80026c6:	f423 2370 	bic.w	r3, r3, #983040	; 0xf0000
 80026ca:	6013      	str	r3, [r2, #0]
GPIOA->CRL|=0X00030000;  //PA4 push-pull output
 80026cc:	4b08      	ldr	r3, [pc, #32]	; (80026f0 <LED_Init+0x40>)
 80026ce:	681b      	ldr	r3, [r3, #0]
 80026d0:	4a07      	ldr	r2, [pc, #28]	; (80026f0 <LED_Init+0x40>)
 80026d2:	f443 3340 	orr.w	r3, r3, #196608	; 0x30000
 80026d6:	6013      	str	r3, [r2, #0]
GPIOA->ODR|=1<<4;        //PA4 High output
 80026d8:	4b05      	ldr	r3, [pc, #20]	; (80026f0 <LED_Init+0x40>)
 80026da:	68db      	ldr	r3, [r3, #12]
 80026dc:	4a04      	ldr	r2, [pc, #16]	; (80026f0 <LED_Init+0x40>)
 80026de:	f043 0310 	orr.w	r3, r3, #16
 80026e2:	60d3      	str	r3, [r2, #12]
}
 80026e4:	bf00      	nop
 80026e6:	46bd      	mov	sp, r7
 80026e8:	bc80      	pop	{r7}
 80026ea:	4770      	bx	lr
 80026ec:	40021000 	.word	0x40021000
 80026f0:	40010800 	.word	0x40010800

080026f4 <Led_Flash>:
Function: LED flicker
Entry parameter: Scintillation frequency
Return value: None
**************************************************************************/
void Led_Flash(u16 time)
{
 80026f4:	b480      	push	{r7}
 80026f6:	b083      	sub	sp, #12
 80026f8:	af00      	add	r7, sp, #0
 80026fa:	4603      	mov	r3, r0
 80026fc:	80fb      	strh	r3, [r7, #6]
	  static int temp;
	  if(0==time) LED=0;
 80026fe:	88fb      	ldrh	r3, [r7, #6]
 8002700:	2b00      	cmp	r3, #0
 8002702:	d103      	bne.n	800270c <Led_Flash+0x18>
 8002704:	4b0d      	ldr	r3, [pc, #52]	; (800273c <Led_Flash+0x48>)
 8002706:	2200      	movs	r2, #0
 8002708:	601a      	str	r2, [r3, #0]
	  else		if(++temp==time)	LED=~LED,temp=0;
}
 800270a:	e011      	b.n	8002730 <Led_Flash+0x3c>
	  else		if(++temp==time)	LED=~LED,temp=0;
 800270c:	4b0c      	ldr	r3, [pc, #48]	; (8002740 <Led_Flash+0x4c>)
 800270e:	681b      	ldr	r3, [r3, #0]
 8002710:	3301      	adds	r3, #1
 8002712:	4a0b      	ldr	r2, [pc, #44]	; (8002740 <Led_Flash+0x4c>)
 8002714:	6013      	str	r3, [r2, #0]
 8002716:	4b0a      	ldr	r3, [pc, #40]	; (8002740 <Led_Flash+0x4c>)
 8002718:	681a      	ldr	r2, [r3, #0]
 800271a:	88fb      	ldrh	r3, [r7, #6]
 800271c:	429a      	cmp	r2, r3
 800271e:	d107      	bne.n	8002730 <Led_Flash+0x3c>
 8002720:	4b06      	ldr	r3, [pc, #24]	; (800273c <Led_Flash+0x48>)
 8002722:	681b      	ldr	r3, [r3, #0]
 8002724:	4a05      	ldr	r2, [pc, #20]	; (800273c <Led_Flash+0x48>)
 8002726:	43db      	mvns	r3, r3
 8002728:	6013      	str	r3, [r2, #0]
 800272a:	4b05      	ldr	r3, [pc, #20]	; (8002740 <Led_Flash+0x4c>)
 800272c:	2200      	movs	r2, #0
 800272e:	601a      	str	r2, [r3, #0]
}
 8002730:	bf00      	nop
 8002732:	370c      	adds	r7, #12
 8002734:	46bd      	mov	sp, r7
 8002736:	bc80      	pop	{r7}
 8002738:	4770      	bx	lr
 800273a:	bf00      	nop
 800273c:	42210190 	.word	0x42210190
 8002740:	200000a8 	.word	0x200000a8

08002744 <MiniBalance_Motor_Init>:
  /**************************************************************************
AuthorMinibalance
Our aliexpresshttps://minibalance.aliexpress.com
**************************************************************************/
void MiniBalance_Motor_Init(void)
{
 8002744:	b480      	push	{r7}
 8002746:	af00      	add	r7, sp, #0
	RCC->APB2ENR|=1<<3;       //PORTB Clock enable  
 8002748:	4b0b      	ldr	r3, [pc, #44]	; (8002778 <MiniBalance_Motor_Init+0x34>)
 800274a:	699b      	ldr	r3, [r3, #24]
 800274c:	4a0a      	ldr	r2, [pc, #40]	; (8002778 <MiniBalance_Motor_Init+0x34>)
 800274e:	f043 0308 	orr.w	r3, r3, #8
 8002752:	6193      	str	r3, [r2, #24]
	GPIOB->CRH&=0X0000FFFF;   //PORTB12 13 14 15 push-pull
 8002754:	4b09      	ldr	r3, [pc, #36]	; (800277c <MiniBalance_Motor_Init+0x38>)
 8002756:	685b      	ldr	r3, [r3, #4]
 8002758:	4a08      	ldr	r2, [pc, #32]	; (800277c <MiniBalance_Motor_Init+0x38>)
 800275a:	b29b      	uxth	r3, r3
 800275c:	6053      	str	r3, [r2, #4]
	GPIOB->CRH|=0X22220000;   //PORTB12 13 14 15 push-pull
 800275e:	4b07      	ldr	r3, [pc, #28]	; (800277c <MiniBalance_Motor_Init+0x38>)
 8002760:	685b      	ldr	r3, [r3, #4]
 8002762:	4a06      	ldr	r2, [pc, #24]	; (800277c <MiniBalance_Motor_Init+0x38>)
 8002764:	f043 5308 	orr.w	r3, r3, #570425344	; 0x22000000
 8002768:	f443 1308 	orr.w	r3, r3, #2228224	; 0x220000
 800276c:	6053      	str	r3, [r2, #4]
}
 800276e:	bf00      	nop
 8002770:	46bd      	mov	sp, r7
 8002772:	bc80      	pop	{r7}
 8002774:	4770      	bx	lr
 8002776:	bf00      	nop
 8002778:	40021000 	.word	0x40021000
 800277c:	40010c00 	.word	0x40010c00

08002780 <MiniBalance_PWM_Init>:
void MiniBalance_PWM_Init(u16 arr,u16 psc)
{		 					 
 8002780:	b580      	push	{r7, lr}
 8002782:	b082      	sub	sp, #8
 8002784:	af00      	add	r7, sp, #0
 8002786:	4603      	mov	r3, r0
 8002788:	460a      	mov	r2, r1
 800278a:	80fb      	strh	r3, [r7, #6]
 800278c:	4613      	mov	r3, r2
 800278e:	80bb      	strh	r3, [r7, #4]
MiniBalance_Motor_Init(); //Initializing IO required for motor control
 8002790:	f7ff ffd8 	bl	8002744 <MiniBalance_Motor_Init>
	RCC->APB1ENR|=1<<1;       //TIM3 clock enable    
 8002794:	4b2e      	ldr	r3, [pc, #184]	; (8002850 <MiniBalance_PWM_Init+0xd0>)
 8002796:	69db      	ldr	r3, [r3, #28]
 8002798:	4a2d      	ldr	r2, [pc, #180]	; (8002850 <MiniBalance_PWM_Init+0xd0>)
 800279a:	f043 0302 	orr.w	r3, r3, #2
 800279e:	61d3      	str	r3, [r2, #28]
	RCC->APB2ENR|=1<<3;       //PORTB clock enable   
 80027a0:	4b2b      	ldr	r3, [pc, #172]	; (8002850 <MiniBalance_PWM_Init+0xd0>)
 80027a2:	699b      	ldr	r3, [r3, #24]
 80027a4:	4a2a      	ldr	r2, [pc, #168]	; (8002850 <MiniBalance_PWM_Init+0xd0>)
 80027a6:	f043 0308 	orr.w	r3, r3, #8
 80027aa:	6193      	str	r3, [r2, #24]
	GPIOB->CRL&=0XFFFFFF00;   //PORTB0 1 multiplexing output
 80027ac:	4b29      	ldr	r3, [pc, #164]	; (8002854 <MiniBalance_PWM_Init+0xd4>)
 80027ae:	681b      	ldr	r3, [r3, #0]
 80027b0:	4a28      	ldr	r2, [pc, #160]	; (8002854 <MiniBalance_PWM_Init+0xd4>)
 80027b2:	f023 03ff 	bic.w	r3, r3, #255	; 0xff
 80027b6:	6013      	str	r3, [r2, #0]
	GPIOB->CRL|=0X000000BB;   //PORTB0 1 Multiplexed output
 80027b8:	4b26      	ldr	r3, [pc, #152]	; (8002854 <MiniBalance_PWM_Init+0xd4>)
 80027ba:	681b      	ldr	r3, [r3, #0]
 80027bc:	4a25      	ldr	r2, [pc, #148]	; (8002854 <MiniBalance_PWM_Init+0xd4>)
 80027be:	f043 03bb 	orr.w	r3, r3, #187	; 0xbb
 80027c2:	6013      	str	r3, [r2, #0]
	TIM3->ARR=arr;//Setting counter automatic reload value
 80027c4:	4a24      	ldr	r2, [pc, #144]	; (8002858 <MiniBalance_PWM_Init+0xd8>)
 80027c6:	88fb      	ldrh	r3, [r7, #6]
 80027c8:	8593      	strh	r3, [r2, #44]	; 0x2c
	TIM3->PSC=psc;//Prescaler non frequency division
 80027ca:	4a23      	ldr	r2, [pc, #140]	; (8002858 <MiniBalance_PWM_Init+0xd8>)
 80027cc:	88bb      	ldrh	r3, [r7, #4]
 80027ce:	8513      	strh	r3, [r2, #40]	; 0x28
	TIM3->CCMR2|=6<<12;//CH4 PWM1 mode	
 80027d0:	4b21      	ldr	r3, [pc, #132]	; (8002858 <MiniBalance_PWM_Init+0xd8>)
 80027d2:	8b9b      	ldrh	r3, [r3, #28]
 80027d4:	b29b      	uxth	r3, r3
 80027d6:	4a20      	ldr	r2, [pc, #128]	; (8002858 <MiniBalance_PWM_Init+0xd8>)
 80027d8:	f443 43c0 	orr.w	r3, r3, #24576	; 0x6000
 80027dc:	b29b      	uxth	r3, r3
 80027de:	8393      	strh	r3, [r2, #28]
	TIM3->CCMR2|=6<<4; //CH3 PWM1 mode	
 80027e0:	4b1d      	ldr	r3, [pc, #116]	; (8002858 <MiniBalance_PWM_Init+0xd8>)
 80027e2:	8b9b      	ldrh	r3, [r3, #28]
 80027e4:	b29b      	uxth	r3, r3
 80027e6:	4a1c      	ldr	r2, [pc, #112]	; (8002858 <MiniBalance_PWM_Init+0xd8>)
 80027e8:	f043 0360 	orr.w	r3, r3, #96	; 0x60
 80027ec:	b29b      	uxth	r3, r3
 80027ee:	8393      	strh	r3, [r2, #28]
	TIM3->CCMR2|=1<<11;//CH4 Pre load enable energy	 
 80027f0:	4b19      	ldr	r3, [pc, #100]	; (8002858 <MiniBalance_PWM_Init+0xd8>)
 80027f2:	8b9b      	ldrh	r3, [r3, #28]
 80027f4:	b29b      	uxth	r3, r3
 80027f6:	4a18      	ldr	r2, [pc, #96]	; (8002858 <MiniBalance_PWM_Init+0xd8>)
 80027f8:	f443 6300 	orr.w	r3, r3, #2048	; 0x800
 80027fc:	b29b      	uxth	r3, r3
 80027fe:	8393      	strh	r3, [r2, #28]
	TIM3->CCMR2|=1<<3; //CH3 Pre load enable energy
 8002800:	4b15      	ldr	r3, [pc, #84]	; (8002858 <MiniBalance_PWM_Init+0xd8>)
 8002802:	8b9b      	ldrh	r3, [r3, #28]
 8002804:	b29b      	uxth	r3, r3
 8002806:	4a14      	ldr	r2, [pc, #80]	; (8002858 <MiniBalance_PWM_Init+0xd8>)
 8002808:	f043 0308 	orr.w	r3, r3, #8
 800280c:	b29b      	uxth	r3, r3
 800280e:	8393      	strh	r3, [r2, #28]
	TIM3->CCER|=1<<12; //CH4 Output enable   
 8002810:	4b11      	ldr	r3, [pc, #68]	; (8002858 <MiniBalance_PWM_Init+0xd8>)
 8002812:	8c1b      	ldrh	r3, [r3, #32]
 8002814:	b29b      	uxth	r3, r3
 8002816:	4a10      	ldr	r2, [pc, #64]	; (8002858 <MiniBalance_PWM_Init+0xd8>)
 8002818:	f443 5380 	orr.w	r3, r3, #4096	; 0x1000
 800281c:	b29b      	uxth	r3, r3
 800281e:	8413      	strh	r3, [r2, #32]
	TIM3->CCER|=1<<8;  //CH3 Output enable	
 8002820:	4b0d      	ldr	r3, [pc, #52]	; (8002858 <MiniBalance_PWM_Init+0xd8>)
 8002822:	8c1b      	ldrh	r3, [r3, #32]
 8002824:	b29b      	uxth	r3, r3
 8002826:	4a0c      	ldr	r2, [pc, #48]	; (8002858 <MiniBalance_PWM_Init+0xd8>)
 8002828:	f443 7380 	orr.w	r3, r3, #256	; 0x100
 800282c:	b29b      	uxth	r3, r3
 800282e:	8413      	strh	r3, [r2, #32]
	TIM3->CR1=0x80;  //ARPE Make energy 
 8002830:	4b09      	ldr	r3, [pc, #36]	; (8002858 <MiniBalance_PWM_Init+0xd8>)
 8002832:	2280      	movs	r2, #128	; 0x80
 8002834:	801a      	strh	r2, [r3, #0]
	TIM3->CR1|=0x01;   //Enabling timer 3 	
 8002836:	4b08      	ldr	r3, [pc, #32]	; (8002858 <MiniBalance_PWM_Init+0xd8>)
 8002838:	881b      	ldrh	r3, [r3, #0]
 800283a:	b29b      	uxth	r3, r3
 800283c:	4a06      	ldr	r2, [pc, #24]	; (8002858 <MiniBalance_PWM_Init+0xd8>)
 800283e:	f043 0301 	orr.w	r3, r3, #1
 8002842:	b29b      	uxth	r3, r3
 8002844:	8013      	strh	r3, [r2, #0]
} 
 8002846:	bf00      	nop
 8002848:	3708      	adds	r7, #8
 800284a:	46bd      	mov	sp, r7
 800284c:	bd80      	pop	{r7, pc}
 800284e:	bf00      	nop
 8002850:	40021000 	.word	0x40021000
 8002854:	40010c00 	.word	0x40010c00
 8002858:	40000400 	.word	0x40000400

0800285c <OLED_Refresh_Gram>:
AuthorMinibalance
Our aliexpresshttps://minibalance.aliexpress.com
**************************************************************************/		   
u8 OLED_GRAM[128][8];	 
void OLED_Refresh_Gram(void)
{
 800285c:	b580      	push	{r7, lr}
 800285e:	b082      	sub	sp, #8
 8002860:	af00      	add	r7, sp, #0
	u8 i,n;		    
	for(i=0;i<8;i++)  
 8002862:	2300      	movs	r3, #0
 8002864:	71fb      	strb	r3, [r7, #7]
 8002866:	e026      	b.n	80028b6 <OLED_Refresh_Gram+0x5a>
	{  
		OLED_WR_Byte (0xb0+i,OLED_CMD);    //Setting page address (0~7)
 8002868:	79fb      	ldrb	r3, [r7, #7]
 800286a:	3b50      	subs	r3, #80	; 0x50
 800286c:	b2db      	uxtb	r3, r3
 800286e:	2100      	movs	r1, #0
 8002870:	4618      	mov	r0, r3
 8002872:	f000 f82b 	bl	80028cc <OLED_WR_Byte>
		OLED_WR_Byte (0x00,OLED_CMD);      //Set display location - low address
 8002876:	2100      	movs	r1, #0
 8002878:	2000      	movs	r0, #0
 800287a:	f000 f827 	bl	80028cc <OLED_WR_Byte>
		OLED_WR_Byte (0x10,OLED_CMD);      //Set display location - column high address
 800287e:	2100      	movs	r1, #0
 8002880:	2010      	movs	r0, #16
 8002882:	f000 f823 	bl	80028cc <OLED_WR_Byte>
		for(n=0;n<128;n++)OLED_WR_Byte(OLED_GRAM[n][i],OLED_DATA); 
 8002886:	2300      	movs	r3, #0
 8002888:	71bb      	strb	r3, [r7, #6]
 800288a:	e00d      	b.n	80028a8 <OLED_Refresh_Gram+0x4c>
 800288c:	79ba      	ldrb	r2, [r7, #6]
 800288e:	79fb      	ldrb	r3, [r7, #7]
 8002890:	490d      	ldr	r1, [pc, #52]	; (80028c8 <OLED_Refresh_Gram+0x6c>)
 8002892:	00d2      	lsls	r2, r2, #3
 8002894:	440a      	add	r2, r1
 8002896:	4413      	add	r3, r2
 8002898:	781b      	ldrb	r3, [r3, #0]
 800289a:	2101      	movs	r1, #1
 800289c:	4618      	mov	r0, r3
 800289e:	f000 f815 	bl	80028cc <OLED_WR_Byte>
 80028a2:	79bb      	ldrb	r3, [r7, #6]
 80028a4:	3301      	adds	r3, #1
 80028a6:	71bb      	strb	r3, [r7, #6]
 80028a8:	f997 3006 	ldrsb.w	r3, [r7, #6]
 80028ac:	2b00      	cmp	r3, #0
 80028ae:	daed      	bge.n	800288c <OLED_Refresh_Gram+0x30>
	for(i=0;i<8;i++)  
 80028b0:	79fb      	ldrb	r3, [r7, #7]
 80028b2:	3301      	adds	r3, #1
 80028b4:	71fb      	strb	r3, [r7, #7]
 80028b6:	79fb      	ldrb	r3, [r7, #7]
 80028b8:	2b07      	cmp	r3, #7
 80028ba:	d9d5      	bls.n	8002868 <OLED_Refresh_Gram+0xc>
	}   
}
 80028bc:	bf00      	nop
 80028be:	bf00      	nop
 80028c0:	3708      	adds	r7, #8
 80028c2:	46bd      	mov	sp, r7
 80028c4:	bd80      	pop	{r7, pc}
 80028c6:	bf00      	nop
 80028c8:	200000c4 	.word	0x200000c4

080028cc <OLED_WR_Byte>:

// write a byte to OLED.
//dat: to write data / commands
//cmd: data / command flag 0, indicating command; 1, representing data;
void OLED_WR_Byte(u8 dat,u8 cmd)
{	
 80028cc:	b480      	push	{r7}
 80028ce:	b085      	sub	sp, #20
 80028d0:	af00      	add	r7, sp, #0
 80028d2:	4603      	mov	r3, r0
 80028d4:	460a      	mov	r2, r1
 80028d6:	71fb      	strb	r3, [r7, #7]
 80028d8:	4613      	mov	r3, r2
 80028da:	71bb      	strb	r3, [r7, #6]
	u8 i;			  
	if(cmd)
 80028dc:	79bb      	ldrb	r3, [r7, #6]
 80028de:	2b00      	cmp	r3, #0
 80028e0:	d003      	beq.n	80028ea <OLED_WR_Byte+0x1e>
	  OLED_RS_Set();
 80028e2:	4b16      	ldr	r3, [pc, #88]	; (800293c <OLED_WR_Byte+0x70>)
 80028e4:	2201      	movs	r2, #1
 80028e6:	601a      	str	r2, [r3, #0]
 80028e8:	e002      	b.n	80028f0 <OLED_WR_Byte+0x24>
	else 
	  OLED_RS_Clr();		  
 80028ea:	4b14      	ldr	r3, [pc, #80]	; (800293c <OLED_WR_Byte+0x70>)
 80028ec:	2200      	movs	r2, #0
 80028ee:	601a      	str	r2, [r3, #0]
	for(i=0;i<8;i++)
 80028f0:	2300      	movs	r3, #0
 80028f2:	73fb      	strb	r3, [r7, #15]
 80028f4:	e016      	b.n	8002924 <OLED_WR_Byte+0x58>
	{			  
		OLED_SCLK_Clr();
 80028f6:	4b12      	ldr	r3, [pc, #72]	; (8002940 <OLED_WR_Byte+0x74>)
 80028f8:	2200      	movs	r2, #0
 80028fa:	601a      	str	r2, [r3, #0]
		if(dat&0x80)
 80028fc:	f997 3007 	ldrsb.w	r3, [r7, #7]
 8002900:	2b00      	cmp	r3, #0
 8002902:	da03      	bge.n	800290c <OLED_WR_Byte+0x40>
		   OLED_SDIN_Set();
 8002904:	4b0f      	ldr	r3, [pc, #60]	; (8002944 <OLED_WR_Byte+0x78>)
 8002906:	2201      	movs	r2, #1
 8002908:	601a      	str	r2, [r3, #0]
 800290a:	e002      	b.n	8002912 <OLED_WR_Byte+0x46>
		else 
		   OLED_SDIN_Clr();
 800290c:	4b0d      	ldr	r3, [pc, #52]	; (8002944 <OLED_WR_Byte+0x78>)
 800290e:	2200      	movs	r2, #0
 8002910:	601a      	str	r2, [r3, #0]
		OLED_SCLK_Set();
 8002912:	4b0b      	ldr	r3, [pc, #44]	; (8002940 <OLED_WR_Byte+0x74>)
 8002914:	2201      	movs	r2, #1
 8002916:	601a      	str	r2, [r3, #0]
		dat<<=1;   
 8002918:	79fb      	ldrb	r3, [r7, #7]
 800291a:	005b      	lsls	r3, r3, #1
 800291c:	71fb      	strb	r3, [r7, #7]
	for(i=0;i<8;i++)
 800291e:	7bfb      	ldrb	r3, [r7, #15]
 8002920:	3301      	adds	r3, #1
 8002922:	73fb      	strb	r3, [r7, #15]
 8002924:	7bfb      	ldrb	r3, [r7, #15]
 8002926:	2b07      	cmp	r3, #7
 8002928:	d9e5      	bls.n	80028f6 <OLED_WR_Byte+0x2a>
	}				 		  
	OLED_RS_Set();   	  
 800292a:	4b04      	ldr	r3, [pc, #16]	; (800293c <OLED_WR_Byte+0x70>)
 800292c:	2201      	movs	r2, #1
 800292e:	601a      	str	r2, [r3, #0]
} 
 8002930:	bf00      	nop
 8002932:	3714      	adds	r7, #20
 8002934:	46bd      	mov	sp, r7
 8002936:	bc80      	pop	{r7}
 8002938:	4770      	bx	lr
 800293a:	bf00      	nop
 800293c:	422101bc 	.word	0x422101bc
 8002940:	42218194 	.word	0x42218194
 8002944:	42218190 	.word	0x42218190

08002948 <OLED_Clear>:
	OLED_WR_Byte(0X10,OLED_CMD);  //DCDC OFF
	OLED_WR_Byte(0XAE,OLED_CMD);  //DISPLAY OFF
}		   			 
// clear screen function, clear the screen, the whole screen is black! And not lit!!!
void OLED_Clear(void)  
{  
 8002948:	b580      	push	{r7, lr}
 800294a:	b082      	sub	sp, #8
 800294c:	af00      	add	r7, sp, #0
	u8 i,n;  
	for(i=0;i<8;i++)for(n=0;n<128;n++)OLED_GRAM[n][i]=0X00;  
 800294e:	2300      	movs	r3, #0
 8002950:	71fb      	strb	r3, [r7, #7]
 8002952:	e014      	b.n	800297e <OLED_Clear+0x36>
 8002954:	2300      	movs	r3, #0
 8002956:	71bb      	strb	r3, [r7, #6]
 8002958:	e00a      	b.n	8002970 <OLED_Clear+0x28>
 800295a:	79ba      	ldrb	r2, [r7, #6]
 800295c:	79fb      	ldrb	r3, [r7, #7]
 800295e:	490c      	ldr	r1, [pc, #48]	; (8002990 <OLED_Clear+0x48>)
 8002960:	00d2      	lsls	r2, r2, #3
 8002962:	440a      	add	r2, r1
 8002964:	4413      	add	r3, r2
 8002966:	2200      	movs	r2, #0
 8002968:	701a      	strb	r2, [r3, #0]
 800296a:	79bb      	ldrb	r3, [r7, #6]
 800296c:	3301      	adds	r3, #1
 800296e:	71bb      	strb	r3, [r7, #6]
 8002970:	f997 3006 	ldrsb.w	r3, [r7, #6]
 8002974:	2b00      	cmp	r3, #0
 8002976:	daf0      	bge.n	800295a <OLED_Clear+0x12>
 8002978:	79fb      	ldrb	r3, [r7, #7]
 800297a:	3301      	adds	r3, #1
 800297c:	71fb      	strb	r3, [r7, #7]
 800297e:	79fb      	ldrb	r3, [r7, #7]
 8002980:	2b07      	cmp	r3, #7
 8002982:	d9e7      	bls.n	8002954 <OLED_Clear+0xc>
	OLED_Refresh_Gram();//update display
 8002984:	f7ff ff6a 	bl	800285c <OLED_Refresh_Gram>
}
 8002988:	bf00      	nop
 800298a:	3708      	adds	r7, #8
 800298c:	46bd      	mov	sp, r7
 800298e:	bd80      	pop	{r7, pc}
 8002990:	200000c4 	.word	0x200000c4

08002994 <OLED_DrawPoint>:
// draw a point
//x:0~127
//y:0~63
//t:1 fill 0, empty.			   
void OLED_DrawPoint(u8 x,u8 y,u8 t)
{
 8002994:	b480      	push	{r7}
 8002996:	b085      	sub	sp, #20
 8002998:	af00      	add	r7, sp, #0
 800299a:	4603      	mov	r3, r0
 800299c:	71fb      	strb	r3, [r7, #7]
 800299e:	460b      	mov	r3, r1
 80029a0:	71bb      	strb	r3, [r7, #6]
 80029a2:	4613      	mov	r3, r2
 80029a4:	717b      	strb	r3, [r7, #5]
	u8 pos,bx,temp=0;
 80029a6:	2300      	movs	r3, #0
 80029a8:	73fb      	strb	r3, [r7, #15]
	if(x>127||y>63)return;//It's out of range.
 80029aa:	f997 3007 	ldrsb.w	r3, [r7, #7]
 80029ae:	2b00      	cmp	r3, #0
 80029b0:	db41      	blt.n	8002a36 <OLED_DrawPoint+0xa2>
 80029b2:	79bb      	ldrb	r3, [r7, #6]
 80029b4:	2b3f      	cmp	r3, #63	; 0x3f
 80029b6:	d83e      	bhi.n	8002a36 <OLED_DrawPoint+0xa2>
	pos=7-y/8;
 80029b8:	79bb      	ldrb	r3, [r7, #6]
 80029ba:	08db      	lsrs	r3, r3, #3
 80029bc:	b2db      	uxtb	r3, r3
 80029be:	f1c3 0307 	rsb	r3, r3, #7
 80029c2:	73bb      	strb	r3, [r7, #14]
	bx=y%8;
 80029c4:	79bb      	ldrb	r3, [r7, #6]
 80029c6:	f003 0307 	and.w	r3, r3, #7
 80029ca:	737b      	strb	r3, [r7, #13]
	temp=1<<(7-bx);
 80029cc:	7b7b      	ldrb	r3, [r7, #13]
 80029ce:	f1c3 0307 	rsb	r3, r3, #7
 80029d2:	2201      	movs	r2, #1
 80029d4:	fa02 f303 	lsl.w	r3, r2, r3
 80029d8:	73fb      	strb	r3, [r7, #15]
	if(t)OLED_GRAM[x][pos]|=temp;
 80029da:	797b      	ldrb	r3, [r7, #5]
 80029dc:	2b00      	cmp	r3, #0
 80029de:	d012      	beq.n	8002a06 <OLED_DrawPoint+0x72>
 80029e0:	79fa      	ldrb	r2, [r7, #7]
 80029e2:	7bbb      	ldrb	r3, [r7, #14]
 80029e4:	4916      	ldr	r1, [pc, #88]	; (8002a40 <OLED_DrawPoint+0xac>)
 80029e6:	00d2      	lsls	r2, r2, #3
 80029e8:	440a      	add	r2, r1
 80029ea:	4413      	add	r3, r2
 80029ec:	7818      	ldrb	r0, [r3, #0]
 80029ee:	79fa      	ldrb	r2, [r7, #7]
 80029f0:	7bbb      	ldrb	r3, [r7, #14]
 80029f2:	7bf9      	ldrb	r1, [r7, #15]
 80029f4:	4301      	orrs	r1, r0
 80029f6:	b2c8      	uxtb	r0, r1
 80029f8:	4911      	ldr	r1, [pc, #68]	; (8002a40 <OLED_DrawPoint+0xac>)
 80029fa:	00d2      	lsls	r2, r2, #3
 80029fc:	440a      	add	r2, r1
 80029fe:	4413      	add	r3, r2
 8002a00:	4602      	mov	r2, r0
 8002a02:	701a      	strb	r2, [r3, #0]
 8002a04:	e018      	b.n	8002a38 <OLED_DrawPoint+0xa4>
	else OLED_GRAM[x][pos]&=~temp;	    
 8002a06:	79fa      	ldrb	r2, [r7, #7]
 8002a08:	7bbb      	ldrb	r3, [r7, #14]
 8002a0a:	490d      	ldr	r1, [pc, #52]	; (8002a40 <OLED_DrawPoint+0xac>)
 8002a0c:	00d2      	lsls	r2, r2, #3
 8002a0e:	440a      	add	r2, r1
 8002a10:	4413      	add	r3, r2
 8002a12:	781b      	ldrb	r3, [r3, #0]
 8002a14:	b25a      	sxtb	r2, r3
 8002a16:	f997 300f 	ldrsb.w	r3, [r7, #15]
 8002a1a:	43db      	mvns	r3, r3
 8002a1c:	b25b      	sxtb	r3, r3
 8002a1e:	4013      	ands	r3, r2
 8002a20:	b259      	sxtb	r1, r3
 8002a22:	79fa      	ldrb	r2, [r7, #7]
 8002a24:	7bbb      	ldrb	r3, [r7, #14]
 8002a26:	b2c8      	uxtb	r0, r1
 8002a28:	4905      	ldr	r1, [pc, #20]	; (8002a40 <OLED_DrawPoint+0xac>)
 8002a2a:	00d2      	lsls	r2, r2, #3
 8002a2c:	440a      	add	r2, r1
 8002a2e:	4413      	add	r3, r2
 8002a30:	4602      	mov	r2, r0
 8002a32:	701a      	strb	r2, [r3, #0]
 8002a34:	e000      	b.n	8002a38 <OLED_DrawPoint+0xa4>
	if(x>127||y>63)return;//It's out of range.
 8002a36:	bf00      	nop
}
 8002a38:	3714      	adds	r7, #20
 8002a3a:	46bd      	mov	sp, r7
 8002a3c:	bc80      	pop	{r7}
 8002a3e:	4770      	bx	lr
 8002a40:	200000c4 	.word	0x200000c4

08002a44 <OLED_ShowChar>:
//x:0~127
//y:0~63
//mode:0, reverse display; 1, normal display.
//size: choose font 16/12 
void OLED_ShowChar(u8 x,u8 y,u8 chr,u8 size,u8 mode)
{      			    
 8002a44:	b590      	push	{r4, r7, lr}
 8002a46:	b085      	sub	sp, #20
 8002a48:	af00      	add	r7, sp, #0
 8002a4a:	4604      	mov	r4, r0
 8002a4c:	4608      	mov	r0, r1
 8002a4e:	4611      	mov	r1, r2
 8002a50:	461a      	mov	r2, r3
 8002a52:	4623      	mov	r3, r4
 8002a54:	71fb      	strb	r3, [r7, #7]
 8002a56:	4603      	mov	r3, r0
 8002a58:	71bb      	strb	r3, [r7, #6]
 8002a5a:	460b      	mov	r3, r1
 8002a5c:	717b      	strb	r3, [r7, #5]
 8002a5e:	4613      	mov	r3, r2
 8002a60:	713b      	strb	r3, [r7, #4]
	u8 temp,t,t1;
	u8 y0=y;
 8002a62:	79bb      	ldrb	r3, [r7, #6]
 8002a64:	733b      	strb	r3, [r7, #12]
	chr=chr-' ';// get the offset value.				   
 8002a66:	797b      	ldrb	r3, [r7, #5]
 8002a68:	3b20      	subs	r3, #32
 8002a6a:	717b      	strb	r3, [r7, #5]
    for(t=0;t<size;t++)
 8002a6c:	2300      	movs	r3, #0
 8002a6e:	73bb      	strb	r3, [r7, #14]
 8002a70:	e04d      	b.n	8002b0e <OLED_ShowChar+0xca>
    {   
		if(size==12)temp=oled_asc2_1206[chr][t];  //Call 1206 font
 8002a72:	793b      	ldrb	r3, [r7, #4]
 8002a74:	2b0c      	cmp	r3, #12
 8002a76:	d10b      	bne.n	8002a90 <OLED_ShowChar+0x4c>
 8002a78:	797a      	ldrb	r2, [r7, #5]
 8002a7a:	7bb9      	ldrb	r1, [r7, #14]
 8002a7c:	4828      	ldr	r0, [pc, #160]	; (8002b20 <OLED_ShowChar+0xdc>)
 8002a7e:	4613      	mov	r3, r2
 8002a80:	005b      	lsls	r3, r3, #1
 8002a82:	4413      	add	r3, r2
 8002a84:	009b      	lsls	r3, r3, #2
 8002a86:	4403      	add	r3, r0
 8002a88:	440b      	add	r3, r1
 8002a8a:	781b      	ldrb	r3, [r3, #0]
 8002a8c:	73fb      	strb	r3, [r7, #15]
 8002a8e:	e007      	b.n	8002aa0 <OLED_ShowChar+0x5c>
		else temp=oled_asc2_1608[chr][t];		 //Call 1608 font 	                          
 8002a90:	797a      	ldrb	r2, [r7, #5]
 8002a92:	7bbb      	ldrb	r3, [r7, #14]
 8002a94:	4923      	ldr	r1, [pc, #140]	; (8002b24 <OLED_ShowChar+0xe0>)
 8002a96:	0112      	lsls	r2, r2, #4
 8002a98:	440a      	add	r2, r1
 8002a9a:	4413      	add	r3, r2
 8002a9c:	781b      	ldrb	r3, [r3, #0]
 8002a9e:	73fb      	strb	r3, [r7, #15]
        for(t1=0;t1<8;t1++)
 8002aa0:	2300      	movs	r3, #0
 8002aa2:	737b      	strb	r3, [r7, #13]
 8002aa4:	e02d      	b.n	8002b02 <OLED_ShowChar+0xbe>
		{
			if(temp&0x80)OLED_DrawPoint(x,y,mode);
 8002aa6:	f997 300f 	ldrsb.w	r3, [r7, #15]
 8002aaa:	2b00      	cmp	r3, #0
 8002aac:	da07      	bge.n	8002abe <OLED_ShowChar+0x7a>
 8002aae:	f897 2020 	ldrb.w	r2, [r7, #32]
 8002ab2:	79b9      	ldrb	r1, [r7, #6]
 8002ab4:	79fb      	ldrb	r3, [r7, #7]
 8002ab6:	4618      	mov	r0, r3
 8002ab8:	f7ff ff6c 	bl	8002994 <OLED_DrawPoint>
 8002abc:	e00c      	b.n	8002ad8 <OLED_ShowChar+0x94>
			else OLED_DrawPoint(x,y,!mode);
 8002abe:	f897 3020 	ldrb.w	r3, [r7, #32]
 8002ac2:	2b00      	cmp	r3, #0
 8002ac4:	bf0c      	ite	eq
 8002ac6:	2301      	moveq	r3, #1
 8002ac8:	2300      	movne	r3, #0
 8002aca:	b2db      	uxtb	r3, r3
 8002acc:	461a      	mov	r2, r3
 8002ace:	79b9      	ldrb	r1, [r7, #6]
 8002ad0:	79fb      	ldrb	r3, [r7, #7]
 8002ad2:	4618      	mov	r0, r3
 8002ad4:	f7ff ff5e 	bl	8002994 <OLED_DrawPoint>
			temp<<=1;
 8002ad8:	7bfb      	ldrb	r3, [r7, #15]
 8002ada:	005b      	lsls	r3, r3, #1
 8002adc:	73fb      	strb	r3, [r7, #15]
			y++;
 8002ade:	79bb      	ldrb	r3, [r7, #6]
 8002ae0:	3301      	adds	r3, #1
 8002ae2:	71bb      	strb	r3, [r7, #6]
			if((y-y0)==size)
 8002ae4:	79ba      	ldrb	r2, [r7, #6]
 8002ae6:	7b3b      	ldrb	r3, [r7, #12]
 8002ae8:	1ad2      	subs	r2, r2, r3
 8002aea:	793b      	ldrb	r3, [r7, #4]
 8002aec:	429a      	cmp	r2, r3
 8002aee:	d105      	bne.n	8002afc <OLED_ShowChar+0xb8>
			{
				y=y0;
 8002af0:	7b3b      	ldrb	r3, [r7, #12]
 8002af2:	71bb      	strb	r3, [r7, #6]
				x++;
 8002af4:	79fb      	ldrb	r3, [r7, #7]
 8002af6:	3301      	adds	r3, #1
 8002af8:	71fb      	strb	r3, [r7, #7]
				break;
 8002afa:	e005      	b.n	8002b08 <OLED_ShowChar+0xc4>
        for(t1=0;t1<8;t1++)
 8002afc:	7b7b      	ldrb	r3, [r7, #13]
 8002afe:	3301      	adds	r3, #1
 8002b00:	737b      	strb	r3, [r7, #13]
 8002b02:	7b7b      	ldrb	r3, [r7, #13]
 8002b04:	2b07      	cmp	r3, #7
 8002b06:	d9ce      	bls.n	8002aa6 <OLED_ShowChar+0x62>
    for(t=0;t<size;t++)
 8002b08:	7bbb      	ldrb	r3, [r7, #14]
 8002b0a:	3301      	adds	r3, #1
 8002b0c:	73bb      	strb	r3, [r7, #14]
 8002b0e:	7bba      	ldrb	r2, [r7, #14]
 8002b10:	793b      	ldrb	r3, [r7, #4]
 8002b12:	429a      	cmp	r2, r3
 8002b14:	d3ad      	bcc.n	8002a72 <OLED_ShowChar+0x2e>
			}
		}  	 
    }          
}
 8002b16:	bf00      	nop
 8002b18:	bf00      	nop
 8002b1a:	3714      	adds	r7, #20
 8002b1c:	46bd      	mov	sp, r7
 8002b1e:	bd90      	pop	{r4, r7, pc}
 8002b20:	08003548 	.word	0x08003548
 8002b24:	080039bc 	.word	0x080039bc

08002b28 <oled_pow>:
//m^n function
u32 oled_pow(u8 m,u8 n)
{
 8002b28:	b480      	push	{r7}
 8002b2a:	b085      	sub	sp, #20
 8002b2c:	af00      	add	r7, sp, #0
 8002b2e:	4603      	mov	r3, r0
 8002b30:	460a      	mov	r2, r1
 8002b32:	71fb      	strb	r3, [r7, #7]
 8002b34:	4613      	mov	r3, r2
 8002b36:	71bb      	strb	r3, [r7, #6]
	u32 result=1;	 
 8002b38:	2301      	movs	r3, #1
 8002b3a:	60fb      	str	r3, [r7, #12]
	while(n--)result*=m;    
 8002b3c:	e004      	b.n	8002b48 <oled_pow+0x20>
 8002b3e:	79fa      	ldrb	r2, [r7, #7]
 8002b40:	68fb      	ldr	r3, [r7, #12]
 8002b42:	fb02 f303 	mul.w	r3, r2, r3
 8002b46:	60fb      	str	r3, [r7, #12]
 8002b48:	79bb      	ldrb	r3, [r7, #6]
 8002b4a:	1e5a      	subs	r2, r3, #1
 8002b4c:	71ba      	strb	r2, [r7, #6]
 8002b4e:	2b00      	cmp	r3, #0
 8002b50:	d1f5      	bne.n	8002b3e <oled_pow+0x16>
	return result;
 8002b52:	68fb      	ldr	r3, [r7, #12]
}				  
 8002b54:	4618      	mov	r0, r3
 8002b56:	3714      	adds	r7, #20
 8002b58:	46bd      	mov	sp, r7
 8002b5a:	bc80      	pop	{r7}
 8002b5c:	4770      	bx	lr
	...

08002b60 <OLED_ShowNumber>:
//len: number of digits
//size: font size
//mode: mode 0, fill mode; 1, overlay mode.
//num: value (0~4294967295);	  
void OLED_ShowNumber(u8 x,u8 y,u32 num,u8 len,u8 size)
{         	
 8002b60:	b590      	push	{r4, r7, lr}
 8002b62:	b087      	sub	sp, #28
 8002b64:	af02      	add	r7, sp, #8
 8002b66:	603a      	str	r2, [r7, #0]
 8002b68:	461a      	mov	r2, r3
 8002b6a:	4603      	mov	r3, r0
 8002b6c:	71fb      	strb	r3, [r7, #7]
 8002b6e:	460b      	mov	r3, r1
 8002b70:	71bb      	strb	r3, [r7, #6]
 8002b72:	4613      	mov	r3, r2
 8002b74:	717b      	strb	r3, [r7, #5]
	u8 t,temp;
	u8 enshow=0;						   
 8002b76:	2300      	movs	r3, #0
 8002b78:	73bb      	strb	r3, [r7, #14]
	for(t=0;t<len;t++)
 8002b7a:	2300      	movs	r3, #0
 8002b7c:	73fb      	strb	r3, [r7, #15]
 8002b7e:	e051      	b.n	8002c24 <OLED_ShowNumber+0xc4>
	{
		temp=(num/oled_pow(10,len-t-1))%10;
 8002b80:	797a      	ldrb	r2, [r7, #5]
 8002b82:	7bfb      	ldrb	r3, [r7, #15]
 8002b84:	1ad3      	subs	r3, r2, r3
 8002b86:	b2db      	uxtb	r3, r3
 8002b88:	3b01      	subs	r3, #1
 8002b8a:	b2db      	uxtb	r3, r3
 8002b8c:	4619      	mov	r1, r3
 8002b8e:	200a      	movs	r0, #10
 8002b90:	f7ff ffca 	bl	8002b28 <oled_pow>
 8002b94:	4602      	mov	r2, r0
 8002b96:	683b      	ldr	r3, [r7, #0]
 8002b98:	fbb3 f1f2 	udiv	r1, r3, r2
 8002b9c:	4b26      	ldr	r3, [pc, #152]	; (8002c38 <OLED_ShowNumber+0xd8>)
 8002b9e:	fba3 2301 	umull	r2, r3, r3, r1
 8002ba2:	08da      	lsrs	r2, r3, #3
 8002ba4:	4613      	mov	r3, r2
 8002ba6:	009b      	lsls	r3, r3, #2
 8002ba8:	4413      	add	r3, r2
 8002baa:	005b      	lsls	r3, r3, #1
 8002bac:	1aca      	subs	r2, r1, r3
 8002bae:	4613      	mov	r3, r2
 8002bb0:	737b      	strb	r3, [r7, #13]
		if(enshow==0&&t<(len-1))
 8002bb2:	7bbb      	ldrb	r3, [r7, #14]
 8002bb4:	2b00      	cmp	r3, #0
 8002bb6:	d11d      	bne.n	8002bf4 <OLED_ShowNumber+0x94>
 8002bb8:	7bfa      	ldrb	r2, [r7, #15]
 8002bba:	797b      	ldrb	r3, [r7, #5]
 8002bbc:	3b01      	subs	r3, #1
 8002bbe:	429a      	cmp	r2, r3
 8002bc0:	da18      	bge.n	8002bf4 <OLED_ShowNumber+0x94>
		{
			if(temp==0)
 8002bc2:	7b7b      	ldrb	r3, [r7, #13]
 8002bc4:	2b00      	cmp	r3, #0
 8002bc6:	d113      	bne.n	8002bf0 <OLED_ShowNumber+0x90>
			{
				OLED_ShowChar(x+(size/2)*t,y,' ',size,1);
 8002bc8:	f897 3020 	ldrb.w	r3, [r7, #32]
 8002bcc:	085b      	lsrs	r3, r3, #1
 8002bce:	b2db      	uxtb	r3, r3
 8002bd0:	7bfa      	ldrb	r2, [r7, #15]
 8002bd2:	fb02 f303 	mul.w	r3, r2, r3
 8002bd6:	b2da      	uxtb	r2, r3
 8002bd8:	79fb      	ldrb	r3, [r7, #7]
 8002bda:	4413      	add	r3, r2
 8002bdc:	b2d8      	uxtb	r0, r3
 8002bde:	f897 3020 	ldrb.w	r3, [r7, #32]
 8002be2:	79b9      	ldrb	r1, [r7, #6]
 8002be4:	2201      	movs	r2, #1
 8002be6:	9200      	str	r2, [sp, #0]
 8002be8:	2220      	movs	r2, #32
 8002bea:	f7ff ff2b 	bl	8002a44 <OLED_ShowChar>
				continue;
 8002bee:	e016      	b.n	8002c1e <OLED_ShowNumber+0xbe>
			}else enshow=1; 
 8002bf0:	2301      	movs	r3, #1
 8002bf2:	73bb      	strb	r3, [r7, #14]
		 	 
		}
	 	OLED_ShowChar(x+(size/2)*t,y,temp+'0',size,1); 
 8002bf4:	f897 3020 	ldrb.w	r3, [r7, #32]
 8002bf8:	085b      	lsrs	r3, r3, #1
 8002bfa:	b2db      	uxtb	r3, r3
 8002bfc:	7bfa      	ldrb	r2, [r7, #15]
 8002bfe:	fb02 f303 	mul.w	r3, r2, r3
 8002c02:	b2da      	uxtb	r2, r3
 8002c04:	79fb      	ldrb	r3, [r7, #7]
 8002c06:	4413      	add	r3, r2
 8002c08:	b2d8      	uxtb	r0, r3
 8002c0a:	7b7b      	ldrb	r3, [r7, #13]
 8002c0c:	3330      	adds	r3, #48	; 0x30
 8002c0e:	b2da      	uxtb	r2, r3
 8002c10:	f897 3020 	ldrb.w	r3, [r7, #32]
 8002c14:	79b9      	ldrb	r1, [r7, #6]
 8002c16:	2401      	movs	r4, #1
 8002c18:	9400      	str	r4, [sp, #0]
 8002c1a:	f7ff ff13 	bl	8002a44 <OLED_ShowChar>
	for(t=0;t<len;t++)
 8002c1e:	7bfb      	ldrb	r3, [r7, #15]
 8002c20:	3301      	adds	r3, #1
 8002c22:	73fb      	strb	r3, [r7, #15]
 8002c24:	7bfa      	ldrb	r2, [r7, #15]
 8002c26:	797b      	ldrb	r3, [r7, #5]
 8002c28:	429a      	cmp	r2, r3
 8002c2a:	d3a9      	bcc.n	8002b80 <OLED_ShowNumber+0x20>
	}
} 
 8002c2c:	bf00      	nop
 8002c2e:	bf00      	nop
 8002c30:	3714      	adds	r7, #20
 8002c32:	46bd      	mov	sp, r7
 8002c34:	bd90      	pop	{r4, r7, pc}
 8002c36:	bf00      	nop
 8002c38:	cccccccd 	.word	0xcccccccd

08002c3c <OLED_ShowString>:
// display string
//x, y: starting coordinates
//*p: string start address
// 16 font.
void OLED_ShowString(u8 x,u8 y,const u8 *p)
{
 8002c3c:	b580      	push	{r7, lr}
 8002c3e:	b084      	sub	sp, #16
 8002c40:	af02      	add	r7, sp, #8
 8002c42:	4603      	mov	r3, r0
 8002c44:	603a      	str	r2, [r7, #0]
 8002c46:	71fb      	strb	r3, [r7, #7]
 8002c48:	460b      	mov	r3, r1
 8002c4a:	71bb      	strb	r3, [r7, #6]
#define MAX_CHAR_POSX 122
#define MAX_CHAR_POSY 58          
    while(*p!='\0')
 8002c4c:	e01f      	b.n	8002c8e <OLED_ShowString+0x52>
    {       
        if(x>MAX_CHAR_POSX){x=0;y+=16;}
 8002c4e:	79fb      	ldrb	r3, [r7, #7]
 8002c50:	2b7a      	cmp	r3, #122	; 0x7a
 8002c52:	d904      	bls.n	8002c5e <OLED_ShowString+0x22>
 8002c54:	2300      	movs	r3, #0
 8002c56:	71fb      	strb	r3, [r7, #7]
 8002c58:	79bb      	ldrb	r3, [r7, #6]
 8002c5a:	3310      	adds	r3, #16
 8002c5c:	71bb      	strb	r3, [r7, #6]
        if(y>MAX_CHAR_POSY){y=x=0;OLED_Clear();}
 8002c5e:	79bb      	ldrb	r3, [r7, #6]
 8002c60:	2b3a      	cmp	r3, #58	; 0x3a
 8002c62:	d905      	bls.n	8002c70 <OLED_ShowString+0x34>
 8002c64:	2300      	movs	r3, #0
 8002c66:	71fb      	strb	r3, [r7, #7]
 8002c68:	79fb      	ldrb	r3, [r7, #7]
 8002c6a:	71bb      	strb	r3, [r7, #6]
 8002c6c:	f7ff fe6c 	bl	8002948 <OLED_Clear>
        OLED_ShowChar(x,y,*p,12,1);	 
 8002c70:	683b      	ldr	r3, [r7, #0]
 8002c72:	781a      	ldrb	r2, [r3, #0]
 8002c74:	79b9      	ldrb	r1, [r7, #6]
 8002c76:	79f8      	ldrb	r0, [r7, #7]
 8002c78:	2301      	movs	r3, #1
 8002c7a:	9300      	str	r3, [sp, #0]
 8002c7c:	230c      	movs	r3, #12
 8002c7e:	f7ff fee1 	bl	8002a44 <OLED_ShowChar>
        x+=8;
 8002c82:	79fb      	ldrb	r3, [r7, #7]
 8002c84:	3308      	adds	r3, #8
 8002c86:	71fb      	strb	r3, [r7, #7]
        p++;
 8002c88:	683b      	ldr	r3, [r7, #0]
 8002c8a:	3301      	adds	r3, #1
 8002c8c:	603b      	str	r3, [r7, #0]
    while(*p!='\0')
 8002c8e:	683b      	ldr	r3, [r7, #0]
 8002c90:	781b      	ldrb	r3, [r3, #0]
 8002c92:	2b00      	cmp	r3, #0
 8002c94:	d1db      	bne.n	8002c4e <OLED_ShowString+0x12>
    }  
}	   
 8002c96:	bf00      	nop
 8002c98:	bf00      	nop
 8002c9a:	3708      	adds	r7, #8
 8002c9c:	46bd      	mov	sp, r7
 8002c9e:	bd80      	pop	{r7, pc}

08002ca0 <OLED_Init>:
//oled					    
void OLED_Init(void)
{ 	
 8002ca0:	b580      	push	{r7, lr}
 8002ca2:	af00      	add	r7, sp, #0
   	 
 	RCC->APB2ENR|=1<<3;    // enable PORTB clock	   	 
 8002ca4:	4b4c      	ldr	r3, [pc, #304]	; (8002dd8 <OLED_Init+0x138>)
 8002ca6:	699b      	ldr	r3, [r3, #24]
 8002ca8:	4a4b      	ldr	r2, [pc, #300]	; (8002dd8 <OLED_Init+0x138>)
 8002caa:	f043 0308 	orr.w	r3, r3, #8
 8002cae:	6193      	str	r3, [r2, #24]
	GPIOB->CRL&=0XFF000FFF; 
 8002cb0:	4b4a      	ldr	r3, [pc, #296]	; (8002ddc <OLED_Init+0x13c>)
 8002cb2:	681b      	ldr	r3, [r3, #0]
 8002cb4:	4a49      	ldr	r2, [pc, #292]	; (8002ddc <OLED_Init+0x13c>)
 8002cb6:	f423 037f 	bic.w	r3, r3, #16711680	; 0xff0000
 8002cba:	f423 4370 	bic.w	r3, r3, #61440	; 0xf000
 8002cbe:	6013      	str	r3, [r2, #0]
	GPIOB->CRL|=0X00222000;//PB3 4 5 push-pull
 8002cc0:	4b46      	ldr	r3, [pc, #280]	; (8002ddc <OLED_Init+0x13c>)
 8002cc2:	681b      	ldr	r3, [r3, #0]
 8002cc4:	4a45      	ldr	r2, [pc, #276]	; (8002ddc <OLED_Init+0x13c>)
 8002cc6:	f443 1308 	orr.w	r3, r3, #2228224	; 0x220000
 8002cca:	f443 5300 	orr.w	r3, r3, #8192	; 0x2000
 8002cce:	6013      	str	r3, [r2, #0]
	 
 	RCC->APB2ENR|=1<<2;    //Enable PORTA clock  	 
 8002cd0:	4b41      	ldr	r3, [pc, #260]	; (8002dd8 <OLED_Init+0x138>)
 8002cd2:	699b      	ldr	r3, [r3, #24]
 8002cd4:	4a40      	ldr	r2, [pc, #256]	; (8002dd8 <OLED_Init+0x138>)
 8002cd6:	f043 0304 	orr.w	r3, r3, #4
 8002cda:	6193      	str	r3, [r2, #24]
	GPIOA->CRH&=0X0FFFFFFF; 
 8002cdc:	4b40      	ldr	r3, [pc, #256]	; (8002de0 <OLED_Init+0x140>)
 8002cde:	685b      	ldr	r3, [r3, #4]
 8002ce0:	4a3f      	ldr	r2, [pc, #252]	; (8002de0 <OLED_Init+0x140>)
 8002ce2:	f023 4370 	bic.w	r3, r3, #4026531840	; 0xf0000000
 8002ce6:	6053      	str	r3, [r2, #4]
	GPIOA->CRH|=0X20000000;//PA15 push-pull  
 8002ce8:	4b3d      	ldr	r3, [pc, #244]	; (8002de0 <OLED_Init+0x140>)
 8002cea:	685b      	ldr	r3, [r3, #4]
 8002cec:	4a3c      	ldr	r2, [pc, #240]	; (8002de0 <OLED_Init+0x140>)
 8002cee:	f043 5300 	orr.w	r3, r3, #536870912	; 0x20000000
 8002cf2:	6053      	str	r3, [r2, #4]


	OLED_RST_Clr();
 8002cf4:	4b3b      	ldr	r3, [pc, #236]	; (8002de4 <OLED_Init+0x144>)
 8002cf6:	2200      	movs	r2, #0
 8002cf8:	601a      	str	r2, [r3, #0]
	delay_ms(100);
 8002cfa:	2064      	movs	r0, #100	; 0x64
 8002cfc:	f000 f904 	bl	8002f08 <delay_ms>
	OLED_RST_Set(); 
 8002d00:	4b38      	ldr	r3, [pc, #224]	; (8002de4 <OLED_Init+0x144>)
 8002d02:	2201      	movs	r2, #1
 8002d04:	601a      	str	r2, [r3, #0]
					  
	OLED_WR_Byte(0xAE,OLED_CMD); //Close display
 8002d06:	2100      	movs	r1, #0
 8002d08:	20ae      	movs	r0, #174	; 0xae
 8002d0a:	f7ff fddf 	bl	80028cc <OLED_WR_Byte>
	OLED_WR_Byte(0xD5,OLED_CMD); //Set clock frequency factor, oscillation frequency
 8002d0e:	2100      	movs	r1, #0
 8002d10:	20d5      	movs	r0, #213	; 0xd5
 8002d12:	f7ff fddb 	bl	80028cc <OLED_WR_Byte>
	OLED_WR_Byte(80,OLED_CMD);   //[3:0], frequency divisor; [7:4], oscillation frequency.
 8002d16:	2100      	movs	r1, #0
 8002d18:	2050      	movs	r0, #80	; 0x50
 8002d1a:	f7ff fdd7 	bl	80028cc <OLED_WR_Byte>
	OLED_WR_Byte(0xA8,OLED_CMD); //Set the number of drivers
 8002d1e:	2100      	movs	r1, #0
 8002d20:	20a8      	movs	r0, #168	; 0xa8
 8002d22:	f7ff fdd3 	bl	80028cc <OLED_WR_Byte>
	OLED_WR_Byte(0X3F,OLED_CMD); //Default 0X3F (1/64) 
 8002d26:	2100      	movs	r1, #0
 8002d28:	203f      	movs	r0, #63	; 0x3f
 8002d2a:	f7ff fdcf 	bl	80028cc <OLED_WR_Byte>
	OLED_WR_Byte(0xD3,OLED_CMD); //Set display offset
 8002d2e:	2100      	movs	r1, #0
 8002d30:	20d3      	movs	r0, #211	; 0xd3
 8002d32:	f7ff fdcb 	bl	80028cc <OLED_WR_Byte>
	OLED_WR_Byte(0X00,OLED_CMD); //The default is 0
 8002d36:	2100      	movs	r1, #0
 8002d38:	2000      	movs	r0, #0
 8002d3a:	f7ff fdc7 	bl	80028cc <OLED_WR_Byte>

	OLED_WR_Byte(0x40,OLED_CMD); //Set the start line [5:0] and the number of rows.
 8002d3e:	2100      	movs	r1, #0
 8002d40:	2040      	movs	r0, #64	; 0x40
 8002d42:	f7ff fdc3 	bl	80028cc <OLED_WR_Byte>
													    
	OLED_WR_Byte(0x8D,OLED_CMD); //Charge pump settings
 8002d46:	2100      	movs	r1, #0
 8002d48:	208d      	movs	r0, #141	; 0x8d
 8002d4a:	f7ff fdbf 	bl	80028cc <OLED_WR_Byte>
	OLED_WR_Byte(0x14,OLED_CMD); //Bit2, on / off
 8002d4e:	2100      	movs	r1, #0
 8002d50:	2014      	movs	r0, #20
 8002d52:	f7ff fdbb 	bl	80028cc <OLED_WR_Byte>
	OLED_WR_Byte(0x20,OLED_CMD); //Set memory address mode
 8002d56:	2100      	movs	r1, #0
 8002d58:	2020      	movs	r0, #32
 8002d5a:	f7ff fdb7 	bl	80028cc <OLED_WR_Byte>
	OLED_WR_Byte(0x02,OLED_CMD); //[1:0], 00, column address mode; 01, row address mode; 10, page address mode; default 10;
 8002d5e:	2100      	movs	r1, #0
 8002d60:	2002      	movs	r0, #2
 8002d62:	f7ff fdb3 	bl	80028cc <OLED_WR_Byte>
	OLED_WR_Byte(0xA1,OLED_CMD); //Segment redefinition settings, bit0:0,0->0; 1,0->127;
 8002d66:	2100      	movs	r1, #0
 8002d68:	20a1      	movs	r0, #161	; 0xa1
 8002d6a:	f7ff fdaf 	bl	80028cc <OLED_WR_Byte>
	OLED_WR_Byte(0xC0,OLED_CMD); //Set COM scan direction; bit3:0, normal mode; 1, redefine mode COM[N-1]->COM0; N: drive path.
 8002d6e:	2100      	movs	r1, #0
 8002d70:	20c0      	movs	r0, #192	; 0xc0
 8002d72:	f7ff fdab 	bl	80028cc <OLED_WR_Byte>
	OLED_WR_Byte(0xDA,OLED_CMD); //Setting up COM hardware pin configuration
 8002d76:	2100      	movs	r1, #0
 8002d78:	20da      	movs	r0, #218	; 0xda
 8002d7a:	f7ff fda7 	bl	80028cc <OLED_WR_Byte>
	OLED_WR_Byte(0x12,OLED_CMD); //[5:4]To configure
 8002d7e:	2100      	movs	r1, #0
 8002d80:	2012      	movs	r0, #18
 8002d82:	f7ff fda3 	bl	80028cc <OLED_WR_Byte>
		 
	OLED_WR_Byte(0x81,OLED_CMD); //Contrast settings
 8002d86:	2100      	movs	r1, #0
 8002d88:	2081      	movs	r0, #129	; 0x81
 8002d8a:	f7ff fd9f 	bl	80028cc <OLED_WR_Byte>
	OLED_WR_Byte(0xEF,OLED_CMD); //1~255; default 0X7F (brightness setting, larger and brighter)
 8002d8e:	2100      	movs	r1, #0
 8002d90:	20ef      	movs	r0, #239	; 0xef
 8002d92:	f7ff fd9b 	bl	80028cc <OLED_WR_Byte>
	OLED_WR_Byte(0xD9,OLED_CMD); //Set up pre charge cycle
 8002d96:	2100      	movs	r1, #0
 8002d98:	20d9      	movs	r0, #217	; 0xd9
 8002d9a:	f7ff fd97 	bl	80028cc <OLED_WR_Byte>
	OLED_WR_Byte(0xf1,OLED_CMD); //[3:0],PHASE 1;[7:4],PHASE 2;
 8002d9e:	2100      	movs	r1, #0
 8002da0:	20f1      	movs	r0, #241	; 0xf1
 8002da2:	f7ff fd93 	bl	80028cc <OLED_WR_Byte>
	OLED_WR_Byte(0xDB,OLED_CMD); //Set VCOMH voltage multiplying rate
 8002da6:	2100      	movs	r1, #0
 8002da8:	20db      	movs	r0, #219	; 0xdb
 8002daa:	f7ff fd8f 	bl	80028cc <OLED_WR_Byte>
	OLED_WR_Byte(0x30,OLED_CMD); //[6:4] 000,0.65*vcc;001,0.77*vcc;011,0.83*vcc;
 8002dae:	2100      	movs	r1, #0
 8002db0:	2030      	movs	r0, #48	; 0x30
 8002db2:	f7ff fd8b 	bl	80028cc <OLED_WR_Byte>

	OLED_WR_Byte(0xA4,OLED_CMD); //The global display is turned on; bit0:1, turn on; 0, turn off; (white screen / black screen).
 8002db6:	2100      	movs	r1, #0
 8002db8:	20a4      	movs	r0, #164	; 0xa4
 8002dba:	f7ff fd87 	bl	80028cc <OLED_WR_Byte>
	OLED_WR_Byte(0xA6,OLED_CMD); //Set the display mode; bit0:1, reverse display; 0, normal display.  						   
 8002dbe:	2100      	movs	r1, #0
 8002dc0:	20a6      	movs	r0, #166	; 0xa6
 8002dc2:	f7ff fd83 	bl	80028cc <OLED_WR_Byte>
	OLED_WR_Byte(0xAF,OLED_CMD); //Open display	 
 8002dc6:	2100      	movs	r1, #0
 8002dc8:	20af      	movs	r0, #175	; 0xaf
 8002dca:	f7ff fd7f 	bl	80028cc <OLED_WR_Byte>
	OLED_Clear();
 8002dce:	f7ff fdbb 	bl	8002948 <OLED_Clear>
}  
 8002dd2:	bf00      	nop
 8002dd4:	bd80      	pop	{r7, pc}
 8002dd6:	bf00      	nop
 8002dd8:	40021000 	.word	0x40021000
 8002ddc:	40010c00 	.word	0x40010c00
 8002de0:	40010800 	.word	0x40010800
 8002de4:	4221818c 	.word	0x4221818c

08002de8 <Timer1_Init>:
Function function: timing interrupt initialization
Entry parameters: arr: automatic reload value PSC: clock preset frequency
Return value: None
**************************************************************************/
void Timer1_Init(u16 arr,u16 psc)  
{  
 8002de8:	b580      	push	{r7, lr}
 8002dea:	b082      	sub	sp, #8
 8002dec:	af00      	add	r7, sp, #0
 8002dee:	4603      	mov	r3, r0
 8002df0:	460a      	mov	r2, r1
 8002df2:	80fb      	strh	r3, [r7, #6]
 8002df4:	4613      	mov	r3, r2
 8002df6:	80bb      	strh	r3, [r7, #4]
	RCC->APB2ENR|=1<<11;//TIM1 clock enable    
 8002df8:	4b16      	ldr	r3, [pc, #88]	; (8002e54 <Timer1_Init+0x6c>)
 8002dfa:	699b      	ldr	r3, [r3, #24]
 8002dfc:	4a15      	ldr	r2, [pc, #84]	; (8002e54 <Timer1_Init+0x6c>)
 8002dfe:	f443 6300 	orr.w	r3, r3, #2048	; 0x800
 8002e02:	6193      	str	r3, [r2, #24]
 	TIM1->ARR=arr;      //Setting counter automatic reload value  
 8002e04:	4a14      	ldr	r2, [pc, #80]	; (8002e58 <Timer1_Init+0x70>)
 8002e06:	88fb      	ldrh	r3, [r7, #6]
 8002e08:	8593      	strh	r3, [r2, #44]	; 0x2c
	TIM1->PSC=psc;      //The prescaler 7200 gets the count clock of 10Khz.
 8002e0a:	4a13      	ldr	r2, [pc, #76]	; (8002e58 <Timer1_Init+0x70>)
 8002e0c:	88bb      	ldrh	r3, [r7, #4]
 8002e0e:	8513      	strh	r3, [r2, #40]	; 0x28
	TIM1->DIER|=1<<0;   //Enable update interrupt				
 8002e10:	4b11      	ldr	r3, [pc, #68]	; (8002e58 <Timer1_Init+0x70>)
 8002e12:	899b      	ldrh	r3, [r3, #12]
 8002e14:	b29b      	uxth	r3, r3
 8002e16:	4a10      	ldr	r2, [pc, #64]	; (8002e58 <Timer1_Init+0x70>)
 8002e18:	f043 0301 	orr.w	r3, r3, #1
 8002e1c:	b29b      	uxth	r3, r3
 8002e1e:	8193      	strh	r3, [r2, #12]
	TIM1->DIER|=1<<6;   //Enable triggered interrupt	   
 8002e20:	4b0d      	ldr	r3, [pc, #52]	; (8002e58 <Timer1_Init+0x70>)
 8002e22:	899b      	ldrh	r3, [r3, #12]
 8002e24:	b29b      	uxth	r3, r3
 8002e26:	4a0c      	ldr	r2, [pc, #48]	; (8002e58 <Timer1_Init+0x70>)
 8002e28:	f043 0340 	orr.w	r3, r3, #64	; 0x40
 8002e2c:	b29b      	uxth	r3, r3
 8002e2e:	8193      	strh	r3, [r2, #12]
	TIM1->CR1|=0x01;    //Enabling timer
 8002e30:	4b09      	ldr	r3, [pc, #36]	; (8002e58 <Timer1_Init+0x70>)
 8002e32:	881b      	ldrh	r3, [r3, #0]
 8002e34:	b29b      	uxth	r3, r3
 8002e36:	4a08      	ldr	r2, [pc, #32]	; (8002e58 <Timer1_Init+0x70>)
 8002e38:	f043 0301 	orr.w	r3, r3, #1
 8002e3c:	b29b      	uxth	r3, r3
 8002e3e:	8013      	strh	r3, [r2, #0]
	MY_NVIC_Init(1,1,TIM1_UP_IRQn,2);
 8002e40:	2302      	movs	r3, #2
 8002e42:	2219      	movs	r2, #25
 8002e44:	2101      	movs	r1, #1
 8002e46:	2001      	movs	r0, #1
 8002e48:	f000 f8ce 	bl	8002fe8 <MY_NVIC_Init>
}  
 8002e4c:	bf00      	nop
 8002e4e:	3708      	adds	r7, #8
 8002e50:	46bd      	mov	sp, r7
 8002e52:	bd80      	pop	{r7, pc}
 8002e54:	40021000 	.word	0x40021000
 8002e58:	40012c00 	.word	0x40012c00

08002e5c <delay_init>:
//Initialization delay function
//When using UCOS, this function initializes the clock beat of UCOS.
//The SYSTICK clock is fixed to the 1/8 of the HCLK clock.
//SYSCLK: system clock
void delay_init(u8 SYSCLK)
{
 8002e5c:	b480      	push	{r7}
 8002e5e:	b083      	sub	sp, #12
 8002e60:	af00      	add	r7, sp, #0
 8002e62:	4603      	mov	r3, r0
 8002e64:	71fb      	strb	r3, [r7, #7]
#ifdef OS_CRITICAL_METHOD 	//If OS_CRITICAL_METHOD is defined, it means using ucosII..
	u32 reload;
#endif
 	SysTick->CTRL&=~(1<<2);	//SYSTICK uses external clock source.
 8002e66:	4b0e      	ldr	r3, [pc, #56]	; (8002ea0 <delay_init+0x44>)
 8002e68:	681b      	ldr	r3, [r3, #0]
 8002e6a:	4a0d      	ldr	r2, [pc, #52]	; (8002ea0 <delay_init+0x44>)
 8002e6c:	f023 0304 	bic.w	r3, r3, #4
 8002e70:	6013      	str	r3, [r2, #0]
	fac_us=SYSCLK/8;		//Whether or not UCOS is used, fac_us needs to be used.
 8002e72:	79fb      	ldrb	r3, [r7, #7]
 8002e74:	08db      	lsrs	r3, r3, #3
 8002e76:	b2da      	uxtb	r2, r3
 8002e78:	4b0a      	ldr	r3, [pc, #40]	; (8002ea4 <delay_init+0x48>)
 8002e7a:	701a      	strb	r2, [r3, #0]
	fac_ms=1000/OS_TICKS_PER_SEC;//Represents the minimum unit of delay for uCOS.	   
	SysTick->CTRL|=1<<1;   	//Open SYSTICK interrupt
	SysTick->LOAD=reload; 	//Interrupts every 1/OS_TICKS_PER_SEC seconds.
	SysTick->CTRL|=1<<0;   	//Open SYSTICK  
#else
	fac_ms=(u16)fac_us*1000;//The number of systick clocks required for each MS is not UCOS.
 8002e7c:	4b09      	ldr	r3, [pc, #36]	; (8002ea4 <delay_init+0x48>)
 8002e7e:	781b      	ldrb	r3, [r3, #0]
 8002e80:	b29b      	uxth	r3, r3
 8002e82:	461a      	mov	r2, r3
 8002e84:	0152      	lsls	r2, r2, #5
 8002e86:	1ad2      	subs	r2, r2, r3
 8002e88:	0092      	lsls	r2, r2, #2
 8002e8a:	4413      	add	r3, r2
 8002e8c:	00db      	lsls	r3, r3, #3
 8002e8e:	b29a      	uxth	r2, r3
 8002e90:	4b05      	ldr	r3, [pc, #20]	; (8002ea8 <delay_init+0x4c>)
 8002e92:	801a      	strh	r2, [r3, #0]
#endif
}								    
 8002e94:	bf00      	nop
 8002e96:	370c      	adds	r7, #12
 8002e98:	46bd      	mov	sp, r7
 8002e9a:	bc80      	pop	{r7}
 8002e9c:	4770      	bx	lr
 8002e9e:	bf00      	nop
 8002ea0:	e000e010 	.word	0xe000e010
 8002ea4:	200000ac 	.word	0x200000ac
 8002ea8:	200000ae 	.word	0x200000ae

08002eac <delay_us>:
	delay_us((u32)(nms*1000));	//Common mode delay 
}
#else//   no UCOS
//delay nus		    								   
void delay_us(u32 nus)
{		
 8002eac:	b480      	push	{r7}
 8002eae:	b085      	sub	sp, #20
 8002eb0:	af00      	add	r7, sp, #0
 8002eb2:	6078      	str	r0, [r7, #4]
	u32 temp;	    	 
	SysTick->LOAD=nus*fac_us; //Time loading	  		 
 8002eb4:	4b12      	ldr	r3, [pc, #72]	; (8002f00 <delay_us+0x54>)
 8002eb6:	781b      	ldrb	r3, [r3, #0]
 8002eb8:	4619      	mov	r1, r3
 8002eba:	4a12      	ldr	r2, [pc, #72]	; (8002f04 <delay_us+0x58>)
 8002ebc:	687b      	ldr	r3, [r7, #4]
 8002ebe:	fb03 f301 	mul.w	r3, r3, r1
 8002ec2:	6053      	str	r3, [r2, #4]
	SysTick->VAL=0x00;        //Empty counter
 8002ec4:	4b0f      	ldr	r3, [pc, #60]	; (8002f04 <delay_us+0x58>)
 8002ec6:	2200      	movs	r2, #0
 8002ec8:	609a      	str	r2, [r3, #8]
	SysTick->CTRL=0x01 ;      //Start the countdown 	 
 8002eca:	4b0e      	ldr	r3, [pc, #56]	; (8002f04 <delay_us+0x58>)
 8002ecc:	2201      	movs	r2, #1
 8002ece:	601a      	str	r2, [r3, #0]
	do
	{
		temp=SysTick->CTRL;
 8002ed0:	4b0c      	ldr	r3, [pc, #48]	; (8002f04 <delay_us+0x58>)
 8002ed2:	681b      	ldr	r3, [r3, #0]
 8002ed4:	60fb      	str	r3, [r7, #12]
	}
	while((temp&0x01)&&!(temp&(1<<16)));//Waiting time to arrive   
 8002ed6:	68fb      	ldr	r3, [r7, #12]
 8002ed8:	f003 0301 	and.w	r3, r3, #1
 8002edc:	2b00      	cmp	r3, #0
 8002ede:	d004      	beq.n	8002eea <delay_us+0x3e>
 8002ee0:	68fb      	ldr	r3, [r7, #12]
 8002ee2:	f403 3380 	and.w	r3, r3, #65536	; 0x10000
 8002ee6:	2b00      	cmp	r3, #0
 8002ee8:	d0f2      	beq.n	8002ed0 <delay_us+0x24>
	SysTick->CTRL=0x00;       //Close counter
 8002eea:	4b06      	ldr	r3, [pc, #24]	; (8002f04 <delay_us+0x58>)
 8002eec:	2200      	movs	r2, #0
 8002eee:	601a      	str	r2, [r3, #0]
	SysTick->VAL =0X00;       //Empty counter	 
 8002ef0:	4b04      	ldr	r3, [pc, #16]	; (8002f04 <delay_us+0x58>)
 8002ef2:	2200      	movs	r2, #0
 8002ef4:	609a      	str	r2, [r3, #8]
}
 8002ef6:	bf00      	nop
 8002ef8:	3714      	adds	r7, #20
 8002efa:	46bd      	mov	sp, r7
 8002efc:	bc80      	pop	{r7}
 8002efe:	4770      	bx	lr
 8002f00:	200000ac 	.word	0x200000ac
 8002f04:	e000e010 	.word	0xe000e010

08002f08 <delay_ms>:
// pay attention to the scope of NMS.
//SysTick->LOAD is a 24 bit register, so the maximum delay is:nms<=0xffffff*8*1000/SYSCLK
//The SYSCLK unit is Hz, and the NMS unit is Ms.
// for 72M, nms<=1864
void delay_ms(u16 nms)
{	 		  	  
 8002f08:	b480      	push	{r7}
 8002f0a:	b085      	sub	sp, #20
 8002f0c:	af00      	add	r7, sp, #0
 8002f0e:	4603      	mov	r3, r0
 8002f10:	80fb      	strh	r3, [r7, #6]
	u32 temp;		   
	SysTick->LOAD=(u32)nms*fac_ms;//Time loading(SysTick->LOAD24bit)
 8002f12:	88fb      	ldrh	r3, [r7, #6]
 8002f14:	4a12      	ldr	r2, [pc, #72]	; (8002f60 <delay_ms+0x58>)
 8002f16:	8812      	ldrh	r2, [r2, #0]
 8002f18:	4611      	mov	r1, r2
 8002f1a:	4a12      	ldr	r2, [pc, #72]	; (8002f64 <delay_ms+0x5c>)
 8002f1c:	fb01 f303 	mul.w	r3, r1, r3
 8002f20:	6053      	str	r3, [r2, #4]
	SysTick->VAL =0x00;           //Empty counter
 8002f22:	4b10      	ldr	r3, [pc, #64]	; (8002f64 <delay_ms+0x5c>)
 8002f24:	2200      	movs	r2, #0
 8002f26:	609a      	str	r2, [r3, #8]
	SysTick->CTRL=0x01 ;          //Start the countdown  
 8002f28:	4b0e      	ldr	r3, [pc, #56]	; (8002f64 <delay_ms+0x5c>)
 8002f2a:	2201      	movs	r2, #1
 8002f2c:	601a      	str	r2, [r3, #0]
	do
	{
		temp=SysTick->CTRL;
 8002f2e:	4b0d      	ldr	r3, [pc, #52]	; (8002f64 <delay_ms+0x5c>)
 8002f30:	681b      	ldr	r3, [r3, #0]
 8002f32:	60fb      	str	r3, [r7, #12]
	}
	while((temp&0x01)&&!(temp&(1<<16)));//Waiting time to arrive 
 8002f34:	68fb      	ldr	r3, [r7, #12]
 8002f36:	f003 0301 	and.w	r3, r3, #1
 8002f3a:	2b00      	cmp	r3, #0
 8002f3c:	d004      	beq.n	8002f48 <delay_ms+0x40>
 8002f3e:	68fb      	ldr	r3, [r7, #12]
 8002f40:	f403 3380 	and.w	r3, r3, #65536	; 0x10000
 8002f44:	2b00      	cmp	r3, #0
 8002f46:	d0f2      	beq.n	8002f2e <delay_ms+0x26>
	SysTick->CTRL=0x00;       //Close counter
 8002f48:	4b06      	ldr	r3, [pc, #24]	; (8002f64 <delay_ms+0x5c>)
 8002f4a:	2200      	movs	r2, #0
 8002f4c:	601a      	str	r2, [r3, #0]
	SysTick->VAL =0X00;       //Empty counter	  	    
 8002f4e:	4b05      	ldr	r3, [pc, #20]	; (8002f64 <delay_ms+0x5c>)
 8002f50:	2200      	movs	r2, #0
 8002f52:	609a      	str	r2, [r3, #8]
} 
 8002f54:	bf00      	nop
 8002f56:	3714      	adds	r7, #20
 8002f58:	46bd      	mov	sp, r7
 8002f5a:	bc80      	pop	{r7}
 8002f5c:	4770      	bx	lr
 8002f5e:	bf00      	nop
 8002f60:	200000ae 	.word	0x200000ae
 8002f64:	e000e010 	.word	0xe000e010

08002f68 <MY_NVIC_SetVectorTable>:
**************************************************************************/
//Set vector table offset address
//NVIC_VectTab:Base site
//Offset:Offset			 
void MY_NVIC_SetVectorTable(u32 NVIC_VectTab, u32 Offset)	 
{ 	   	 
 8002f68:	b480      	push	{r7}
 8002f6a:	b083      	sub	sp, #12
 8002f6c:	af00      	add	r7, sp, #0
 8002f6e:	6078      	str	r0, [r7, #4]
 8002f70:	6039      	str	r1, [r7, #0]
	SCB->VTOR = NVIC_VectTab|(Offset & (u32)0x1FFFFF80);//Set the vector table offset register of NVIC.
 8002f72:	683b      	ldr	r3, [r7, #0]
 8002f74:	f023 4360 	bic.w	r3, r3, #3758096384	; 0xe0000000
 8002f78:	f023 037f 	bic.w	r3, r3, #127	; 0x7f
 8002f7c:	4904      	ldr	r1, [pc, #16]	; (8002f90 <MY_NVIC_SetVectorTable+0x28>)
 8002f7e:	687a      	ldr	r2, [r7, #4]
 8002f80:	4313      	orrs	r3, r2
 8002f82:	608b      	str	r3, [r1, #8]
	//Is the vector table used in the CODE area or in the RAM area?
}
 8002f84:	bf00      	nop
 8002f86:	370c      	adds	r7, #12
 8002f88:	46bd      	mov	sp, r7
 8002f8a:	bc80      	pop	{r7}
 8002f8c:	4770      	bx	lr
 8002f8e:	bf00      	nop
 8002f90:	e000ed00 	.word	0xe000ed00

08002f94 <MY_NVIC_PriorityGroupConfig>:
//Set up NVIC packet
//NVIC_Group:NVIC group 0~4 total 5 groups	   
void MY_NVIC_PriorityGroupConfig(u8 NVIC_Group)	 
{ 
 8002f94:	b480      	push	{r7}
 8002f96:	b085      	sub	sp, #20
 8002f98:	af00      	add	r7, sp, #0
 8002f9a:	4603      	mov	r3, r0
 8002f9c:	71fb      	strb	r3, [r7, #7]
	u32 temp,temp1;	  
	temp1=(~NVIC_Group)&0x07;//Three position after taking
 8002f9e:	79fb      	ldrb	r3, [r7, #7]
 8002fa0:	43db      	mvns	r3, r3
 8002fa2:	f003 0307 	and.w	r3, r3, #7
 8002fa6:	60fb      	str	r3, [r7, #12]
	temp1<<=8;
 8002fa8:	68fb      	ldr	r3, [r7, #12]
 8002faa:	021b      	lsls	r3, r3, #8
 8002fac:	60fb      	str	r3, [r7, #12]
	temp=SCB->AIRCR;  //Read previous settings
 8002fae:	4b0d      	ldr	r3, [pc, #52]	; (8002fe4 <MY_NVIC_PriorityGroupConfig+0x50>)
 8002fb0:	68db      	ldr	r3, [r3, #12]
 8002fb2:	60bb      	str	r3, [r7, #8]
	temp&=0X0000F8FF; //Empty previous group
 8002fb4:	68ba      	ldr	r2, [r7, #8]
 8002fb6:	f64f 03ff 	movw	r3, #63743	; 0xf8ff
 8002fba:	4013      	ands	r3, r2
 8002fbc:	60bb      	str	r3, [r7, #8]
	temp|=0X05FA0000; //Write the key
 8002fbe:	68bb      	ldr	r3, [r7, #8]
 8002fc0:	f043 63bf 	orr.w	r3, r3, #100139008	; 0x5f80000
 8002fc4:	f443 3300 	orr.w	r3, r3, #131072	; 0x20000
 8002fc8:	60bb      	str	r3, [r7, #8]
	temp|=temp1;	   
 8002fca:	68ba      	ldr	r2, [r7, #8]
 8002fcc:	68fb      	ldr	r3, [r7, #12]
 8002fce:	4313      	orrs	r3, r2
 8002fd0:	60bb      	str	r3, [r7, #8]
	SCB->AIRCR=temp;  //Set groupings	    	  				   
 8002fd2:	4a04      	ldr	r2, [pc, #16]	; (8002fe4 <MY_NVIC_PriorityGroupConfig+0x50>)
 8002fd4:	68bb      	ldr	r3, [r7, #8]
 8002fd6:	60d3      	str	r3, [r2, #12]
}
 8002fd8:	bf00      	nop
 8002fda:	3714      	adds	r7, #20
 8002fdc:	46bd      	mov	sp, r7
 8002fde:	bc80      	pop	{r7}
 8002fe0:	4770      	bx	lr
 8002fe2:	bf00      	nop
 8002fe4:	e000ed00 	.word	0xe000ed00

08002fe8 <MY_NVIC_Init>:
// group 2:2 preemptive priority, 2 bit response priority.
// group 3:3 preemptive priority, 1 bit response priority.
// group 4:4 preemptive priority, 0 bit response priority.
// The principle of NVIC_SubPriority and NVIC_PreemptionPriority is that the smaller the value, the more priority.   
void MY_NVIC_Init(u8 NVIC_PreemptionPriority,u8 NVIC_SubPriority,u8 NVIC_Channel,u8 NVIC_Group)	 
{ 
 8002fe8:	b590      	push	{r4, r7, lr}
 8002fea:	b085      	sub	sp, #20
 8002fec:	af00      	add	r7, sp, #0
 8002fee:	4604      	mov	r4, r0
 8002ff0:	4608      	mov	r0, r1
 8002ff2:	4611      	mov	r1, r2
 8002ff4:	461a      	mov	r2, r3
 8002ff6:	4623      	mov	r3, r4
 8002ff8:	71fb      	strb	r3, [r7, #7]
 8002ffa:	4603      	mov	r3, r0
 8002ffc:	71bb      	strb	r3, [r7, #6]
 8002ffe:	460b      	mov	r3, r1
 8003000:	717b      	strb	r3, [r7, #5]
 8003002:	4613      	mov	r3, r2
 8003004:	713b      	strb	r3, [r7, #4]
	u32 temp;	
	MY_NVIC_PriorityGroupConfig(NVIC_Group);//Set groupings
 8003006:	793b      	ldrb	r3, [r7, #4]
 8003008:	4618      	mov	r0, r3
 800300a:	f7ff ffc3 	bl	8002f94 <MY_NVIC_PriorityGroupConfig>
	temp=NVIC_PreemptionPriority<<(4-NVIC_Group);	  
 800300e:	79fa      	ldrb	r2, [r7, #7]
 8003010:	793b      	ldrb	r3, [r7, #4]
 8003012:	f1c3 0304 	rsb	r3, r3, #4
 8003016:	fa02 f303 	lsl.w	r3, r2, r3
 800301a:	60fb      	str	r3, [r7, #12]
	temp|=NVIC_SubPriority&(0x0f>>NVIC_Group);
 800301c:	79ba      	ldrb	r2, [r7, #6]
 800301e:	793b      	ldrb	r3, [r7, #4]
 8003020:	210f      	movs	r1, #15
 8003022:	fa41 f303 	asr.w	r3, r1, r3
 8003026:	4013      	ands	r3, r2
 8003028:	461a      	mov	r2, r3
 800302a:	68fb      	ldr	r3, [r7, #12]
 800302c:	4313      	orrs	r3, r2
 800302e:	60fb      	str	r3, [r7, #12]
	temp&=0xf;//Take a lower four bit  
 8003030:	68fb      	ldr	r3, [r7, #12]
 8003032:	f003 030f 	and.w	r3, r3, #15
 8003036:	60fb      	str	r3, [r7, #12]
	NVIC->ISER[NVIC_Channel/32]|=(1<<NVIC_Channel%32);//To break the position (to remove it, to reverse the operation is OK).
 8003038:	4a13      	ldr	r2, [pc, #76]	; (8003088 <MY_NVIC_Init+0xa0>)
 800303a:	797b      	ldrb	r3, [r7, #5]
 800303c:	095b      	lsrs	r3, r3, #5
 800303e:	b2d8      	uxtb	r0, r3
 8003040:	4603      	mov	r3, r0
 8003042:	f852 3023 	ldr.w	r3, [r2, r3, lsl #2]
 8003046:	797a      	ldrb	r2, [r7, #5]
 8003048:	f002 021f 	and.w	r2, r2, #31
 800304c:	2101      	movs	r1, #1
 800304e:	fa01 f202 	lsl.w	r2, r1, r2
 8003052:	4614      	mov	r4, r2
 8003054:	4a0c      	ldr	r2, [pc, #48]	; (8003088 <MY_NVIC_Init+0xa0>)
 8003056:	4601      	mov	r1, r0
 8003058:	4323      	orrs	r3, r4
 800305a:	f842 3021 	str.w	r3, [r2, r1, lsl #2]
	NVIC->IP[NVIC_Channel]|=temp<<4;//Setting response priority and steer priority   	    	  				   
 800305e:	4a0a      	ldr	r2, [pc, #40]	; (8003088 <MY_NVIC_Init+0xa0>)
 8003060:	797b      	ldrb	r3, [r7, #5]
 8003062:	4413      	add	r3, r2
 8003064:	f893 3300 	ldrb.w	r3, [r3, #768]	; 0x300
 8003068:	b2d9      	uxtb	r1, r3
 800306a:	68fb      	ldr	r3, [r7, #12]
 800306c:	b2db      	uxtb	r3, r3
 800306e:	011b      	lsls	r3, r3, #4
 8003070:	b2da      	uxtb	r2, r3
 8003072:	4805      	ldr	r0, [pc, #20]	; (8003088 <MY_NVIC_Init+0xa0>)
 8003074:	797b      	ldrb	r3, [r7, #5]
 8003076:	430a      	orrs	r2, r1
 8003078:	b2d2      	uxtb	r2, r2
 800307a:	4403      	add	r3, r0
 800307c:	f883 2300 	strb.w	r2, [r3, #768]	; 0x300
} 
 8003080:	bf00      	nop
 8003082:	3714      	adds	r7, #20
 8003084:	46bd      	mov	sp, r7
 8003086:	bd90      	pop	{r4, r7, pc}
 8003088:	e000e100 	.word	0xe000e100

0800308c <Ex_NVIC_Config>:
//BITx: requires enabling bits.
//TRIM: trigger mode, 1, down rising edge; 2, up and down edge; 3, any level trigger.
// this function can only configure 1 IO ports and multiple IO ports at a time, requiring multiple calls.
// this function automatically opens corresponding interrupts and shielded lines.	    
void Ex_NVIC_Config(u8 GPIOx,u8 BITx,u8 TRIM) 
{
 800308c:	b480      	push	{r7}
 800308e:	b085      	sub	sp, #20
 8003090:	af00      	add	r7, sp, #0
 8003092:	4603      	mov	r3, r0
 8003094:	71fb      	strb	r3, [r7, #7]
 8003096:	460b      	mov	r3, r1
 8003098:	71bb      	strb	r3, [r7, #6]
 800309a:	4613      	mov	r3, r2
 800309c:	717b      	strb	r3, [r7, #5]
	u8 EXTADDR;
	u8 EXTOFFSET;
	EXTADDR=BITx/4;//get the number of interrupt register group.
 800309e:	79bb      	ldrb	r3, [r7, #6]
 80030a0:	089b      	lsrs	r3, r3, #2
 80030a2:	73fb      	strb	r3, [r7, #15]
	EXTOFFSET=(BITx%4)*4; 
 80030a4:	79bb      	ldrb	r3, [r7, #6]
 80030a6:	f003 0303 	and.w	r3, r3, #3
 80030aa:	b2db      	uxtb	r3, r3
 80030ac:	009b      	lsls	r3, r3, #2
 80030ae:	73bb      	strb	r3, [r7, #14]
	RCC->APB2ENR|=0x01;//Enable IO to reuse clock			 
 80030b0:	4b29      	ldr	r3, [pc, #164]	; (8003158 <Ex_NVIC_Config+0xcc>)
 80030b2:	699b      	ldr	r3, [r3, #24]
 80030b4:	4a28      	ldr	r2, [pc, #160]	; (8003158 <Ex_NVIC_Config+0xcc>)
 80030b6:	f043 0301 	orr.w	r3, r3, #1
 80030ba:	6193      	str	r3, [r2, #24]
	AFIO->EXTICR[EXTADDR]&=~(0x000F<<EXTOFFSET);//
 80030bc:	4a27      	ldr	r2, [pc, #156]	; (800315c <Ex_NVIC_Config+0xd0>)
 80030be:	7bfb      	ldrb	r3, [r7, #15]
 80030c0:	3302      	adds	r3, #2
 80030c2:	f852 2023 	ldr.w	r2, [r2, r3, lsl #2]
 80030c6:	7bbb      	ldrb	r3, [r7, #14]
 80030c8:	210f      	movs	r1, #15
 80030ca:	fa01 f303 	lsl.w	r3, r1, r3
 80030ce:	43db      	mvns	r3, r3
 80030d0:	4618      	mov	r0, r3
 80030d2:	4922      	ldr	r1, [pc, #136]	; (800315c <Ex_NVIC_Config+0xd0>)
 80030d4:	7bfb      	ldrb	r3, [r7, #15]
 80030d6:	4002      	ands	r2, r0
 80030d8:	3302      	adds	r3, #2
 80030da:	f841 2023 	str.w	r2, [r1, r3, lsl #2]
	AFIO->EXTICR[EXTADDR]|=GPIOx<<EXTOFFSET;//EXTI.BITx Mapping to GPIOx.BITx 
 80030de:	4a1f      	ldr	r2, [pc, #124]	; (800315c <Ex_NVIC_Config+0xd0>)
 80030e0:	7bfb      	ldrb	r3, [r7, #15]
 80030e2:	3302      	adds	r3, #2
 80030e4:	f852 2023 	ldr.w	r2, [r2, r3, lsl #2]
 80030e8:	79f9      	ldrb	r1, [r7, #7]
 80030ea:	7bbb      	ldrb	r3, [r7, #14]
 80030ec:	fa01 f303 	lsl.w	r3, r1, r3
 80030f0:	4618      	mov	r0, r3
 80030f2:	491a      	ldr	r1, [pc, #104]	; (800315c <Ex_NVIC_Config+0xd0>)
 80030f4:	7bfb      	ldrb	r3, [r7, #15]
 80030f6:	4302      	orrs	r2, r0
 80030f8:	3302      	adds	r3, #2
 80030fa:	f841 2023 	str.w	r2, [r1, r3, lsl #2]
	//Automatic setting
	EXTI->IMR|=1<<BITx;//  Open the interrupt on line BITx
 80030fe:	4b18      	ldr	r3, [pc, #96]	; (8003160 <Ex_NVIC_Config+0xd4>)
 8003100:	681b      	ldr	r3, [r3, #0]
 8003102:	79ba      	ldrb	r2, [r7, #6]
 8003104:	2101      	movs	r1, #1
 8003106:	fa01 f202 	lsl.w	r2, r1, r2
 800310a:	4611      	mov	r1, r2
 800310c:	4a14      	ldr	r2, [pc, #80]	; (8003160 <Ex_NVIC_Config+0xd4>)
 800310e:	430b      	orrs	r3, r1
 8003110:	6013      	str	r3, [r2, #0]
	//EXTI->EMR|=1<<BITx;//Events on line BITx are not masked (if you don't mask this sentence, it's possible on hardware, but you can't get into interrupts during software emulation!)
 	if(TRIM&0x01)EXTI->FTSR|=1<<BITx;//Event descending edge triggering on line BITx
 8003112:	797b      	ldrb	r3, [r7, #5]
 8003114:	f003 0301 	and.w	r3, r3, #1
 8003118:	2b00      	cmp	r3, #0
 800311a:	d009      	beq.n	8003130 <Ex_NVIC_Config+0xa4>
 800311c:	4b10      	ldr	r3, [pc, #64]	; (8003160 <Ex_NVIC_Config+0xd4>)
 800311e:	68db      	ldr	r3, [r3, #12]
 8003120:	79ba      	ldrb	r2, [r7, #6]
 8003122:	2101      	movs	r1, #1
 8003124:	fa01 f202 	lsl.w	r2, r1, r2
 8003128:	4611      	mov	r1, r2
 800312a:	4a0d      	ldr	r2, [pc, #52]	; (8003160 <Ex_NVIC_Config+0xd4>)
 800312c:	430b      	orrs	r3, r1
 800312e:	60d3      	str	r3, [r2, #12]
	if(TRIM&0x02)EXTI->RTSR|=1<<BITx;//Event rising and falling edge triggering on line BITx
 8003130:	797b      	ldrb	r3, [r7, #5]
 8003132:	f003 0302 	and.w	r3, r3, #2
 8003136:	2b00      	cmp	r3, #0
 8003138:	d009      	beq.n	800314e <Ex_NVIC_Config+0xc2>
 800313a:	4b09      	ldr	r3, [pc, #36]	; (8003160 <Ex_NVIC_Config+0xd4>)
 800313c:	689b      	ldr	r3, [r3, #8]
 800313e:	79ba      	ldrb	r2, [r7, #6]
 8003140:	2101      	movs	r1, #1
 8003142:	fa01 f202 	lsl.w	r2, r1, r2
 8003146:	4611      	mov	r1, r2
 8003148:	4a05      	ldr	r2, [pc, #20]	; (8003160 <Ex_NVIC_Config+0xd4>)
 800314a:	430b      	orrs	r3, r1
 800314c:	6093      	str	r3, [r2, #8]
} 	  
 800314e:	bf00      	nop
 8003150:	3714      	adds	r7, #20
 8003152:	46bd      	mov	sp, r7
 8003154:	bc80      	pop	{r7}
 8003156:	4770      	bx	lr
 8003158:	40021000 	.word	0x40021000
 800315c:	40010000 	.word	0x40010000
 8003160:	40010400 	.word	0x40010400

08003164 <MYRCC_DeInit>:
// no reset of all peripherals can be performed here, otherwise the serial port will not work at least.
// reset all clock registers.	  
void MYRCC_DeInit(void)
{	
 8003164:	b580      	push	{r7, lr}
 8003166:	af00      	add	r7, sp, #0
 	RCC->APB1RSTR = 0x00000000;//Resetting end			 
 8003168:	4b1c      	ldr	r3, [pc, #112]	; (80031dc <MYRCC_DeInit+0x78>)
 800316a:	2200      	movs	r2, #0
 800316c:	611a      	str	r2, [r3, #16]
	RCC->APB2RSTR = 0x00000000; 
 800316e:	4b1b      	ldr	r3, [pc, #108]	; (80031dc <MYRCC_DeInit+0x78>)
 8003170:	2200      	movs	r2, #0
 8003172:	60da      	str	r2, [r3, #12]
	  
  	RCC->AHBENR = 0x00000014;  //Sleep mode flash and SRAM clock enable. Other closures.	  
 8003174:	4b19      	ldr	r3, [pc, #100]	; (80031dc <MYRCC_DeInit+0x78>)
 8003176:	2214      	movs	r2, #20
 8003178:	615a      	str	r2, [r3, #20]
  	RCC->APB2ENR = 0x00000000; //The peripheral clock is closed.		   
 800317a:	4b18      	ldr	r3, [pc, #96]	; (80031dc <MYRCC_DeInit+0x78>)
 800317c:	2200      	movs	r2, #0
 800317e:	619a      	str	r2, [r3, #24]
  	RCC->APB1ENR = 0x00000000;   
 8003180:	4b16      	ldr	r3, [pc, #88]	; (80031dc <MYRCC_DeInit+0x78>)
 8003182:	2200      	movs	r2, #0
 8003184:	61da      	str	r2, [r3, #28]
	RCC->CR |= 0x00000001;     //Enable internal high-speed clock HSION	 															 
 8003186:	4b15      	ldr	r3, [pc, #84]	; (80031dc <MYRCC_DeInit+0x78>)
 8003188:	681b      	ldr	r3, [r3, #0]
 800318a:	4a14      	ldr	r2, [pc, #80]	; (80031dc <MYRCC_DeInit+0x78>)
 800318c:	f043 0301 	orr.w	r3, r3, #1
 8003190:	6013      	str	r3, [r2, #0]
	RCC->CFGR &= 0xF8FF0000;   //Reset SW[1:0],HPRE[3:0],PPRE1[2:0],PPRE2[2:0],ADCPRE[1:0],MCO[2:0]					 
 8003192:	4b12      	ldr	r3, [pc, #72]	; (80031dc <MYRCC_DeInit+0x78>)
 8003194:	685a      	ldr	r2, [r3, #4]
 8003196:	4911      	ldr	r1, [pc, #68]	; (80031dc <MYRCC_DeInit+0x78>)
 8003198:	4b11      	ldr	r3, [pc, #68]	; (80031e0 <MYRCC_DeInit+0x7c>)
 800319a:	4013      	ands	r3, r2
 800319c:	604b      	str	r3, [r1, #4]
	RCC->CR &= 0xFEF6FFFF;     //Reset HSEON,CSSON,PLLON
 800319e:	4b0f      	ldr	r3, [pc, #60]	; (80031dc <MYRCC_DeInit+0x78>)
 80031a0:	681b      	ldr	r3, [r3, #0]
 80031a2:	4a0e      	ldr	r2, [pc, #56]	; (80031dc <MYRCC_DeInit+0x78>)
 80031a4:	f023 7384 	bic.w	r3, r3, #17301504	; 0x1080000
 80031a8:	f423 3380 	bic.w	r3, r3, #65536	; 0x10000
 80031ac:	6013      	str	r3, [r2, #0]
	RCC->CR &= 0xFFFBFFFF;     //Reset HSEBYP	   	  
 80031ae:	4b0b      	ldr	r3, [pc, #44]	; (80031dc <MYRCC_DeInit+0x78>)
 80031b0:	681b      	ldr	r3, [r3, #0]
 80031b2:	4a0a      	ldr	r2, [pc, #40]	; (80031dc <MYRCC_DeInit+0x78>)
 80031b4:	f423 2380 	bic.w	r3, r3, #262144	; 0x40000
 80031b8:	6013      	str	r3, [r2, #0]
	RCC->CFGR &= 0xFF80FFFF;   //Reset PLLSRC, PLLXTPRE, PLLMUL[3:0] and USBPRE 
 80031ba:	4b08      	ldr	r3, [pc, #32]	; (80031dc <MYRCC_DeInit+0x78>)
 80031bc:	685b      	ldr	r3, [r3, #4]
 80031be:	4a07      	ldr	r2, [pc, #28]	; (80031dc <MYRCC_DeInit+0x78>)
 80031c0:	f423 03fe 	bic.w	r3, r3, #8323072	; 0x7f0000
 80031c4:	6053      	str	r3, [r2, #4]
	RCC->CIR = 0x00000000;     //Close all interrupts		 
 80031c6:	4b05      	ldr	r3, [pc, #20]	; (80031dc <MYRCC_DeInit+0x78>)
 80031c8:	2200      	movs	r2, #0
 80031ca:	609a      	str	r2, [r3, #8]
	//Configuration vector table				  
#ifdef  VECT_TAB_RAM
	MY_NVIC_SetVectorTable(0x20000000, 0x0);
#else   
	MY_NVIC_SetVectorTable(0x08000000,0x0);
 80031cc:	2100      	movs	r1, #0
 80031ce:	f04f 6000 	mov.w	r0, #134217728	; 0x8000000
 80031d2:	f7ff fec9 	bl	8002f68 <MY_NVIC_SetVectorTable>
#endif
}
 80031d6:	bf00      	nop
 80031d8:	bd80      	pop	{r7, pc}
 80031da:	bf00      	nop
 80031dc:	40021000 	.word	0x40021000
 80031e0:	f8ff0000 	.word	0xf8ff0000

080031e4 <JTAG_Set>:
//mode:jtag,swd;00,;01,SWD;10,;	   
//#define JTAG_SWD_DISABLE   0X02
//#define SWD_ENABLE         0X01
//#define JTAG_SWD_ENABLE    0X00		  
void JTAG_Set(u8 mode)
{
 80031e4:	b480      	push	{r7}
 80031e6:	b085      	sub	sp, #20
 80031e8:	af00      	add	r7, sp, #0
 80031ea:	4603      	mov	r3, r0
 80031ec:	71fb      	strb	r3, [r7, #7]
	u32 temp;
	temp=mode;
 80031ee:	79fb      	ldrb	r3, [r7, #7]
 80031f0:	60fb      	str	r3, [r7, #12]
	temp<<=25;
 80031f2:	68fb      	ldr	r3, [r7, #12]
 80031f4:	065b      	lsls	r3, r3, #25
 80031f6:	60fb      	str	r3, [r7, #12]
	RCC->APB2ENR|=1<<0;     //	   
 80031f8:	4b0b      	ldr	r3, [pc, #44]	; (8003228 <JTAG_Set+0x44>)
 80031fa:	699b      	ldr	r3, [r3, #24]
 80031fc:	4a0a      	ldr	r2, [pc, #40]	; (8003228 <JTAG_Set+0x44>)
 80031fe:	f043 0301 	orr.w	r3, r3, #1
 8003202:	6193      	str	r3, [r2, #24]
	AFIO->MAPR&=0XF8FFFFFF; //MAPR[26:24]
 8003204:	4b09      	ldr	r3, [pc, #36]	; (800322c <JTAG_Set+0x48>)
 8003206:	685b      	ldr	r3, [r3, #4]
 8003208:	4a08      	ldr	r2, [pc, #32]	; (800322c <JTAG_Set+0x48>)
 800320a:	f023 63e0 	bic.w	r3, r3, #117440512	; 0x7000000
 800320e:	6053      	str	r3, [r2, #4]
	AFIO->MAPR|=temp;       //jtag
 8003210:	4b06      	ldr	r3, [pc, #24]	; (800322c <JTAG_Set+0x48>)
 8003212:	685a      	ldr	r2, [r3, #4]
 8003214:	4905      	ldr	r1, [pc, #20]	; (800322c <JTAG_Set+0x48>)
 8003216:	68fb      	ldr	r3, [r7, #12]
 8003218:	4313      	orrs	r3, r2
 800321a:	604b      	str	r3, [r1, #4]
} 
 800321c:	bf00      	nop
 800321e:	3714      	adds	r7, #20
 8003220:	46bd      	mov	sp, r7
 8003222:	bc80      	pop	{r7}
 8003224:	4770      	bx	lr
 8003226:	bf00      	nop
 8003228:	40021000 	.word	0x40021000
 800322c:	40010000 	.word	0x40010000

08003230 <Stm32_Clock_Init>:
//
//pll:216		 
void Stm32_Clock_Init(u8 PLL)
{
 8003230:	b580      	push	{r7, lr}
 8003232:	b084      	sub	sp, #16
 8003234:	af00      	add	r7, sp, #0
 8003236:	4603      	mov	r3, r0
 8003238:	71fb      	strb	r3, [r7, #7]
	unsigned char temp=0;   
 800323a:	2300      	movs	r3, #0
 800323c:	73fb      	strb	r3, [r7, #15]
	MYRCC_DeInit();		  //
 800323e:	f7ff ff91 	bl	8003164 <MYRCC_DeInit>
 	RCC->CR|=0x00010000;  //HSEON
 8003242:	4b25      	ldr	r3, [pc, #148]	; (80032d8 <Stm32_Clock_Init+0xa8>)
 8003244:	681b      	ldr	r3, [r3, #0]
 8003246:	4a24      	ldr	r2, [pc, #144]	; (80032d8 <Stm32_Clock_Init+0xa8>)
 8003248:	f443 3380 	orr.w	r3, r3, #65536	; 0x10000
 800324c:	6013      	str	r3, [r2, #0]
	while(!(RCC->CR>>17));//
 800324e:	bf00      	nop
 8003250:	4b21      	ldr	r3, [pc, #132]	; (80032d8 <Stm32_Clock_Init+0xa8>)
 8003252:	681b      	ldr	r3, [r3, #0]
 8003254:	0c5b      	lsrs	r3, r3, #17
 8003256:	2b00      	cmp	r3, #0
 8003258:	d0fa      	beq.n	8003250 <Stm32_Clock_Init+0x20>
	RCC->CFGR=0X00000400; //APB1=DIV2;APB2=DIV1;AHB=DIV1;
 800325a:	4b1f      	ldr	r3, [pc, #124]	; (80032d8 <Stm32_Clock_Init+0xa8>)
 800325c:	f44f 6280 	mov.w	r2, #1024	; 0x400
 8003260:	605a      	str	r2, [r3, #4]
	PLL-=2;//2
 8003262:	79fb      	ldrb	r3, [r7, #7]
 8003264:	3b02      	subs	r3, #2
 8003266:	71fb      	strb	r3, [r7, #7]
	RCC->CFGR|=PLL<<18;   //PLL 2~16
 8003268:	4b1b      	ldr	r3, [pc, #108]	; (80032d8 <Stm32_Clock_Init+0xa8>)
 800326a:	685b      	ldr	r3, [r3, #4]
 800326c:	79fa      	ldrb	r2, [r7, #7]
 800326e:	0492      	lsls	r2, r2, #18
 8003270:	4611      	mov	r1, r2
 8003272:	4a19      	ldr	r2, [pc, #100]	; (80032d8 <Stm32_Clock_Init+0xa8>)
 8003274:	430b      	orrs	r3, r1
 8003276:	6053      	str	r3, [r2, #4]
	RCC->CFGR|=1<<16;	  //PLLSRC ON 
 8003278:	4b17      	ldr	r3, [pc, #92]	; (80032d8 <Stm32_Clock_Init+0xa8>)
 800327a:	685b      	ldr	r3, [r3, #4]
 800327c:	4a16      	ldr	r2, [pc, #88]	; (80032d8 <Stm32_Clock_Init+0xa8>)
 800327e:	f443 3380 	orr.w	r3, r3, #65536	; 0x10000
 8003282:	6053      	str	r3, [r2, #4]
	FLASH->ACR|=0x32;	  //FLASH 2
 8003284:	4b15      	ldr	r3, [pc, #84]	; (80032dc <Stm32_Clock_Init+0xac>)
 8003286:	681b      	ldr	r3, [r3, #0]
 8003288:	4a14      	ldr	r2, [pc, #80]	; (80032dc <Stm32_Clock_Init+0xac>)
 800328a:	f043 0332 	orr.w	r3, r3, #50	; 0x32
 800328e:	6013      	str	r3, [r2, #0]

	RCC->CR|=0x01000000;  //PLLON
 8003290:	4b11      	ldr	r3, [pc, #68]	; (80032d8 <Stm32_Clock_Init+0xa8>)
 8003292:	681b      	ldr	r3, [r3, #0]
 8003294:	4a10      	ldr	r2, [pc, #64]	; (80032d8 <Stm32_Clock_Init+0xa8>)
 8003296:	f043 7380 	orr.w	r3, r3, #16777216	; 0x1000000
 800329a:	6013      	str	r3, [r2, #0]
	while(!(RCC->CR>>25));//PLL
 800329c:	bf00      	nop
 800329e:	4b0e      	ldr	r3, [pc, #56]	; (80032d8 <Stm32_Clock_Init+0xa8>)
 80032a0:	681b      	ldr	r3, [r3, #0]
 80032a2:	0e5b      	lsrs	r3, r3, #25
 80032a4:	2b00      	cmp	r3, #0
 80032a6:	d0fa      	beq.n	800329e <Stm32_Clock_Init+0x6e>
	RCC->CFGR|=0x00000002;//PLL	 
 80032a8:	4b0b      	ldr	r3, [pc, #44]	; (80032d8 <Stm32_Clock_Init+0xa8>)
 80032aa:	685b      	ldr	r3, [r3, #4]
 80032ac:	4a0a      	ldr	r2, [pc, #40]	; (80032d8 <Stm32_Clock_Init+0xa8>)
 80032ae:	f043 0302 	orr.w	r3, r3, #2
 80032b2:	6053      	str	r3, [r2, #4]
	while(temp!=0x02)     //PLL
 80032b4:	e007      	b.n	80032c6 <Stm32_Clock_Init+0x96>
	{   
		temp=RCC->CFGR>>2;
 80032b6:	4b08      	ldr	r3, [pc, #32]	; (80032d8 <Stm32_Clock_Init+0xa8>)
 80032b8:	685b      	ldr	r3, [r3, #4]
 80032ba:	089b      	lsrs	r3, r3, #2
 80032bc:	73fb      	strb	r3, [r7, #15]
		temp&=0x03;
 80032be:	7bfb      	ldrb	r3, [r7, #15]
 80032c0:	f003 0303 	and.w	r3, r3, #3
 80032c4:	73fb      	strb	r3, [r7, #15]
	while(temp!=0x02)     //PLL
 80032c6:	7bfb      	ldrb	r3, [r7, #15]
 80032c8:	2b02      	cmp	r3, #2
 80032ca:	d1f4      	bne.n	80032b6 <Stm32_Clock_Init+0x86>
	}    
}		    
 80032cc:	bf00      	nop
 80032ce:	bf00      	nop
 80032d0:	3710      	adds	r7, #16
 80032d2:	46bd      	mov	sp, r7
 80032d4:	bd80      	pop	{r7, pc}
 80032d6:	bf00      	nop
 80032d8:	40021000 	.word	0x40021000
 80032dc:	40022000 	.word	0x40022000

080032e0 <uart_init>:
{
	USART1->DR = data;
	while((USART1->SR&0x40)==0);	
}
void uart_init(u32 pclk2,u32 bound)
{  	 
 80032e0:	b590      	push	{r4, r7, lr}
 80032e2:	b085      	sub	sp, #20
 80032e4:	af00      	add	r7, sp, #0
 80032e6:	6078      	str	r0, [r7, #4]
 80032e8:	6039      	str	r1, [r7, #0]
	float temp;
	u16 mantissa;
	u16 fraction;	   
	temp=(float)(pclk2*1000000)/(bound*16);//get USARTDIV
 80032ea:	687b      	ldr	r3, [r7, #4]
 80032ec:	4a34      	ldr	r2, [pc, #208]	; (80033c0 <uart_init+0xe0>)
 80032ee:	fb02 f303 	mul.w	r3, r2, r3
 80032f2:	4618      	mov	r0, r3
 80032f4:	f7fd fc38 	bl	8000b68 <__aeabi_ui2f>
 80032f8:	4604      	mov	r4, r0
 80032fa:	683b      	ldr	r3, [r7, #0]
 80032fc:	011b      	lsls	r3, r3, #4
 80032fe:	4618      	mov	r0, r3
 8003300:	f7fd fc32 	bl	8000b68 <__aeabi_ui2f>
 8003304:	4603      	mov	r3, r0
 8003306:	4619      	mov	r1, r3
 8003308:	4620      	mov	r0, r4
 800330a:	f7fd fd39 	bl	8000d80 <__aeabi_fdiv>
 800330e:	4603      	mov	r3, r0
 8003310:	60fb      	str	r3, [r7, #12]
	mantissa=temp;				 //Get the integer part
 8003312:	68f8      	ldr	r0, [r7, #12]
 8003314:	f7fd fe6c 	bl	8000ff0 <__aeabi_f2uiz>
 8003318:	4603      	mov	r3, r0
 800331a:	817b      	strh	r3, [r7, #10]
	fraction=(temp-mantissa)*16; //Get the fractional part
 800331c:	897b      	ldrh	r3, [r7, #10]
 800331e:	4618      	mov	r0, r3
 8003320:	f7fd fc26 	bl	8000b70 <__aeabi_i2f>
 8003324:	4603      	mov	r3, r0
 8003326:	4619      	mov	r1, r3
 8003328:	68f8      	ldr	r0, [r7, #12]
 800332a:	f7fd fb6b 	bl	8000a04 <__aeabi_fsub>
 800332e:	4603      	mov	r3, r0
 8003330:	f04f 4183 	mov.w	r1, #1098907648	; 0x41800000
 8003334:	4618      	mov	r0, r3
 8003336:	f7fd fc6f 	bl	8000c18 <__aeabi_fmul>
 800333a:	4603      	mov	r3, r0
 800333c:	4618      	mov	r0, r3
 800333e:	f7fd fe57 	bl	8000ff0 <__aeabi_f2uiz>
 8003342:	4603      	mov	r3, r0
 8003344:	813b      	strh	r3, [r7, #8]
    mantissa<<=4;
 8003346:	897b      	ldrh	r3, [r7, #10]
 8003348:	011b      	lsls	r3, r3, #4
 800334a:	817b      	strh	r3, [r7, #10]
	mantissa+=fraction; 
 800334c:	897a      	ldrh	r2, [r7, #10]
 800334e:	893b      	ldrh	r3, [r7, #8]
 8003350:	4413      	add	r3, r2
 8003352:	817b      	strh	r3, [r7, #10]
	RCC->APB2ENR|=1<<2;   //Enable PORTA port clock  
 8003354:	4b1b      	ldr	r3, [pc, #108]	; (80033c4 <uart_init+0xe4>)
 8003356:	699b      	ldr	r3, [r3, #24]
 8003358:	4a1a      	ldr	r2, [pc, #104]	; (80033c4 <uart_init+0xe4>)
 800335a:	f043 0304 	orr.w	r3, r3, #4
 800335e:	6193      	str	r3, [r2, #24]
	RCC->APB2ENR|=1<<14;  //Enable serial clock
 8003360:	4b18      	ldr	r3, [pc, #96]	; (80033c4 <uart_init+0xe4>)
 8003362:	699b      	ldr	r3, [r3, #24]
 8003364:	4a17      	ldr	r2, [pc, #92]	; (80033c4 <uart_init+0xe4>)
 8003366:	f443 4380 	orr.w	r3, r3, #16384	; 0x4000
 800336a:	6193      	str	r3, [r2, #24]
	GPIOA->CRH&=0XFFFFF00F;//IO status setting
 800336c:	4b16      	ldr	r3, [pc, #88]	; (80033c8 <uart_init+0xe8>)
 800336e:	685b      	ldr	r3, [r3, #4]
 8003370:	4a15      	ldr	r2, [pc, #84]	; (80033c8 <uart_init+0xe8>)
 8003372:	f423 637f 	bic.w	r3, r3, #4080	; 0xff0
 8003376:	6053      	str	r3, [r2, #4]
	GPIOA->CRH|=0X000008B0;//IO status setting
 8003378:	4b13      	ldr	r3, [pc, #76]	; (80033c8 <uart_init+0xe8>)
 800337a:	685b      	ldr	r3, [r3, #4]
 800337c:	4a12      	ldr	r2, [pc, #72]	; (80033c8 <uart_init+0xe8>)
 800337e:	f443 630b 	orr.w	r3, r3, #2224	; 0x8b0
 8003382:	6053      	str	r3, [r2, #4]
		  
	RCC->APB2RSTR|=1<<14;   //Reset serial port 1
 8003384:	4b0f      	ldr	r3, [pc, #60]	; (80033c4 <uart_init+0xe4>)
 8003386:	68db      	ldr	r3, [r3, #12]
 8003388:	4a0e      	ldr	r2, [pc, #56]	; (80033c4 <uart_init+0xe4>)
 800338a:	f443 4380 	orr.w	r3, r3, #16384	; 0x4000
 800338e:	60d3      	str	r3, [r2, #12]
	RCC->APB2RSTR&=~(1<<14);//Stop reset   	   
 8003390:	4b0c      	ldr	r3, [pc, #48]	; (80033c4 <uart_init+0xe4>)
 8003392:	68db      	ldr	r3, [r3, #12]
 8003394:	4a0b      	ldr	r2, [pc, #44]	; (80033c4 <uart_init+0xe4>)
 8003396:	f423 4380 	bic.w	r3, r3, #16384	; 0x4000
 800339a:	60d3      	str	r3, [r2, #12]
	//Baud rate setting
 	USART1->BRR=mantissa; // Baud rate setting	 
 800339c:	4a0b      	ldr	r2, [pc, #44]	; (80033cc <uart_init+0xec>)
 800339e:	897b      	ldrh	r3, [r7, #10]
 80033a0:	8113      	strh	r3, [r2, #8]
	USART1->CR1|=0X200C;  //1 bit stops, no check digit.
 80033a2:	4b0a      	ldr	r3, [pc, #40]	; (80033cc <uart_init+0xec>)
 80033a4:	899b      	ldrh	r3, [r3, #12]
 80033a6:	b29b      	uxth	r3, r3
 80033a8:	4a08      	ldr	r2, [pc, #32]	; (80033cc <uart_init+0xec>)
 80033aa:	f443 5300 	orr.w	r3, r3, #8192	; 0x2000
 80033ae:	f043 030c 	orr.w	r3, r3, #12
 80033b2:	b29b      	uxth	r3, r3
 80033b4:	8193      	strh	r3, [r2, #12]

}
 80033b6:	bf00      	nop
 80033b8:	3714      	adds	r7, #20
 80033ba:	46bd      	mov	sp, r7
 80033bc:	bd90      	pop	{r4, r7, pc}
 80033be:	bf00      	nop
 80033c0:	000f4240 	.word	0x000f4240
 80033c4:	40021000 	.word	0x40021000
 80033c8:	40010800 	.word	0x40010800
 80033cc:	40013800 	.word	0x40013800

080033d0 <main>:
int Voltage;                                //Battery voltage sampling related variables
float Angle_Balance;                        //Angular displacement sensor data
float Balance_KP=400,Balance_KD=400,Position_KP=20,Position_KD=300;  //PID coefficient
float Menu=1,Amplitude1=5,Amplitude2=20,Amplitude3=1,Amplitude4=10; //PID debug related parameters
int main(void)
{ 
 80033d0:	b580      	push	{r7, lr}
 80033d2:	af00      	add	r7, sp, #0
	Stm32_Clock_Init(9);            //=====System clock settings
 80033d4:	2009      	movs	r0, #9
 80033d6:	f7ff ff2b 	bl	8003230 <Stm32_Clock_Init>
	delay_init(72);                 //=====Delay initialization
 80033da:	2048      	movs	r0, #72	; 0x48
 80033dc:	f7ff fd3e 	bl	8002e5c <delay_init>
	JTAG_Set(JTAG_SWD_DISABLE);     //=====Close the JTAG interface.
 80033e0:	2002      	movs	r0, #2
 80033e2:	f7ff feff 	bl	80031e4 <JTAG_Set>
	JTAG_Set(SWD_ENABLE);           //=====The SWD interface can be debugged by using the SWD interface of the motherboard.
 80033e6:	2001      	movs	r0, #1
 80033e8:	f7ff fefc 	bl	80031e4 <JTAG_Set>
	delay_ms(1000);                 //=====Delay startup, waiting for system stability
 80033ec:	f44f 707a 	mov.w	r0, #1000	; 0x3e8
 80033f0:	f7ff fd8a 	bl	8002f08 <delay_ms>
	delay_ms(1000);                 //=====Delay startup, wait for system stability 
 80033f4:	f44f 707a 	mov.w	r0, #1000	; 0x3e8
 80033f8:	f7ff fd86 	bl	8002f08 <delay_ms>
	LED_Init();                     //=====Initializing the hardware interface with LED connection
 80033fc:	f7ff f958 	bl	80026b0 <LED_Init>
	EXTI_Init();                    //=====Initialization of keys (form of external interruption)
 8003400:	f7fe ff0b 	bl	800221a <EXTI_Init>
	OLED_Init();                    //=====OLED initialization
 8003404:	f7ff fc4c 	bl	8002ca0 <OLED_Init>
	uart_init(72,128000);           //=====Initializing serial port 1
 8003408:	f44f 31fa 	mov.w	r1, #128000	; 0x1f400
 800340c:	2048      	movs	r0, #72	; 0x48
 800340e:	f7ff ff67 	bl	80032e0 <uart_init>
  MiniBalance_PWM_Init(7199,0);   //=====Initialize PWM 10KHZ for driving motor 
 8003412:	2100      	movs	r1, #0
 8003414:	f641 401f 	movw	r0, #7199	; 0x1c1f
 8003418:	f7ff f9b2 	bl	8002780 <MiniBalance_PWM_Init>
	Encoder_Init_TIM4();            //=====Initialization encoder 
 800341c:	f7fe fe1a 	bl	8002054 <Encoder_Init_TIM4>
	Angle_Adc_Init();               //=====Angular displacement sensor analog data acquisition initialization
 8003420:	f7fe fd50 	bl	8001ec4 <Angle_Adc_Init>
	Baterry_Adc_Init();             //=====Battery voltage analog acquisition initialization
 8003424:	f7fe fc44 	bl	8001cb0 <Baterry_Adc_Init>
	Timer1_Init(49,7199);           //=====Timing interrupt initialization 
 8003428:	f641 411f 	movw	r1, #7199	; 0x1c1f
 800342c:	2031      	movs	r0, #49	; 0x31
 800342e:	f7ff fcdb 	bl	8002de8 <Timer1_Init>
	while(1)
		{      
				DataScope();	            //===Upper computer
 8003432:	f7fe fbef 	bl	8001c14 <DataScope>
				delay_flag=1;	            //===50ms interrupt precise delay flag
 8003436:	4b05      	ldr	r3, [pc, #20]	; (800344c <main+0x7c>)
 8003438:	2201      	movs	r2, #1
 800343a:	701a      	strb	r2, [r3, #0]
				oled_show();              //===Display screen open  	
 800343c:	f7fe f966 	bl	800170c <oled_show>
				while(delay_flag);        //===50ms interrupt precision delay is mainly waveform display, upper computer needs strict 50ms transmission cycle. 							
 8003440:	bf00      	nop
 8003442:	4b02      	ldr	r3, [pc, #8]	; (800344c <main+0x7c>)
 8003444:	781b      	ldrb	r3, [r3, #0]
 8003446:	2b00      	cmp	r3, #0
 8003448:	d1fb      	bne.n	8003442 <main+0x72>
				DataScope();	            //===Upper computer
 800344a:	e7f2      	b.n	8003432 <main+0x62>
 800344c:	200004c4 	.word	0x200004c4

08003450 <Reset_Handler>:

  .section .text.Reset_Handler
  .weak Reset_Handler
  .type Reset_Handler, %function
Reset_Handler:
  ldr   r0, =_estack
 8003450:	480d      	ldr	r0, [pc, #52]	; (8003488 <LoopForever+0x2>)
  mov   sp, r0          /* set stack pointer */
 8003452:	4685      	mov	sp, r0
/* Call the clock system intitialization function.*/
  bl  SystemInit
 8003454:	f3af 8000 	nop.w

/* Copy the data segment initializers from flash to SRAM */
  ldr r0, =_sdata
 8003458:	480c      	ldr	r0, [pc, #48]	; (800348c <LoopForever+0x6>)
  ldr r1, =_edata
 800345a:	490d      	ldr	r1, [pc, #52]	; (8003490 <LoopForever+0xa>)
  ldr r2, =_sidata
 800345c:	4a0d      	ldr	r2, [pc, #52]	; (8003494 <LoopForever+0xe>)
  movs r3, #0
 800345e:	2300      	movs	r3, #0
  b LoopCopyDataInit
 8003460:	e002      	b.n	8003468 <LoopCopyDataInit>

08003462 <CopyDataInit>:

CopyDataInit:
  ldr r4, [r2, r3]
 8003462:	58d4      	ldr	r4, [r2, r3]
  str r4, [r0, r3]
 8003464:	50c4      	str	r4, [r0, r3]
  adds r3, r3, #4
 8003466:	3304      	adds	r3, #4

08003468 <LoopCopyDataInit>:

LoopCopyDataInit:
  adds r4, r0, r3
 8003468:	18c4      	adds	r4, r0, r3
  cmp r4, r1
 800346a:	428c      	cmp	r4, r1
  bcc CopyDataInit
 800346c:	d3f9      	bcc.n	8003462 <CopyDataInit>

/* Zero fill the bss segment. */
  ldr r2, =_sbss
 800346e:	4a0a      	ldr	r2, [pc, #40]	; (8003498 <LoopForever+0x12>)
  ldr r4, =_ebss
 8003470:	4c0a      	ldr	r4, [pc, #40]	; (800349c <LoopForever+0x16>)
  movs r3, #0
 8003472:	2300      	movs	r3, #0
  b LoopFillZerobss
 8003474:	e001      	b.n	800347a <LoopFillZerobss>

08003476 <FillZerobss>:

FillZerobss:
  str  r3, [r2]
 8003476:	6013      	str	r3, [r2, #0]
  adds r2, r2, #4
 8003478:	3204      	adds	r2, #4

0800347a <LoopFillZerobss>:

LoopFillZerobss:
  cmp r2, r4
 800347a:	42a2      	cmp	r2, r4
  bcc FillZerobss
 800347c:	d3fb      	bcc.n	8003476 <FillZerobss>

/* Call static constructors */
  bl __libc_init_array
 800347e:	f000 f811 	bl	80034a4 <__libc_init_array>
/* Call the application's entry point.*/
  bl main
 8003482:	f7ff ffa5 	bl	80033d0 <main>

08003486 <LoopForever>:

LoopForever:
    b LoopForever
 8003486:	e7fe      	b.n	8003486 <LoopForever>
  ldr   r0, =_estack
 8003488:	20005000 	.word	0x20005000
  ldr r0, =_sdata
 800348c:	20000000 	.word	0x20000000
  ldr r1, =_edata
 8003490:	2000002c 	.word	0x2000002c
  ldr r2, =_sidata
 8003494:	08003fb4 	.word	0x08003fb4
  ldr r2, =_sbss
 8003498:	2000002c 	.word	0x2000002c
  ldr r4, =_ebss
 800349c:	200004d8 	.word	0x200004d8

080034a0 <ADC1_2_IRQHandler>:
 * @retval : None
*/
  .section .text.Default_Handler,"ax",%progbits
Default_Handler:
Infinite_Loop:
  b Infinite_Loop
 80034a0:	e7fe      	b.n	80034a0 <ADC1_2_IRQHandler>
	...

080034a4 <__libc_init_array>:
 80034a4:	b570      	push	{r4, r5, r6, lr}
 80034a6:	2600      	movs	r6, #0
 80034a8:	4d0c      	ldr	r5, [pc, #48]	; (80034dc <__libc_init_array+0x38>)
 80034aa:	4c0d      	ldr	r4, [pc, #52]	; (80034e0 <__libc_init_array+0x3c>)
 80034ac:	1b64      	subs	r4, r4, r5
 80034ae:	10a4      	asrs	r4, r4, #2
 80034b0:	42a6      	cmp	r6, r4
 80034b2:	d109      	bne.n	80034c8 <__libc_init_array+0x24>
 80034b4:	f000 f81a 	bl	80034ec <_init>
 80034b8:	2600      	movs	r6, #0
 80034ba:	4d0a      	ldr	r5, [pc, #40]	; (80034e4 <__libc_init_array+0x40>)
 80034bc:	4c0a      	ldr	r4, [pc, #40]	; (80034e8 <__libc_init_array+0x44>)
 80034be:	1b64      	subs	r4, r4, r5
 80034c0:	10a4      	asrs	r4, r4, #2
 80034c2:	42a6      	cmp	r6, r4
 80034c4:	d105      	bne.n	80034d2 <__libc_init_array+0x2e>
 80034c6:	bd70      	pop	{r4, r5, r6, pc}
 80034c8:	f855 3b04 	ldr.w	r3, [r5], #4
 80034cc:	4798      	blx	r3
 80034ce:	3601      	adds	r6, #1
 80034d0:	e7ee      	b.n	80034b0 <__libc_init_array+0xc>
 80034d2:	f855 3b04 	ldr.w	r3, [r5], #4
 80034d6:	4798      	blx	r3
 80034d8:	3601      	adds	r6, #1
 80034da:	e7f2      	b.n	80034c2 <__libc_init_array+0x1e>
 80034dc:	08003fac 	.word	0x08003fac
 80034e0:	08003fac 	.word	0x08003fac
 80034e4:	08003fac 	.word	0x08003fac
 80034e8:	08003fb0 	.word	0x08003fb0

080034ec <_init>:
 80034ec:	b5f8      	push	{r3, r4, r5, r6, r7, lr}
 80034ee:	bf00      	nop
 80034f0:	bcf8      	pop	{r3, r4, r5, r6, r7}
 80034f2:	bc08      	pop	{r3}
 80034f4:	469e      	mov	lr, r3
 80034f6:	4770      	bx	lr

080034f8 <_fini>:
 80034f8:	b5f8      	push	{r3, r4, r5, r6, r7, lr}
 80034fa:	bf00      	nop
 80034fc:	bcf8      	pop	{r3, r4, r5, r6, r7}
 80034fe:	bc08      	pop	{r3}
 8003500:	469e      	mov	lr, r3
 8003502:	4770      	bx	lr
